	.file	"doit_wifi.c"
	.option nopic
	.attribute arch, "rv32i2p0_m2p0_f2p0_c2p0"
	.attribute unaligned_access, 0
	.attribute stack_align, 16
	.text
.Ltext0:
	.cfi_sections	.debug_frame
	.section	.text.event_cb_wifi_event,"ax",@progbits
	.align	1
	.type	event_cb_wifi_event, @function
event_cb_wifi_event:
.LFB9:
	.file 1 "/home/melody/work/Doiting_BL/bl_iot_sdk/customer_app/WIFI_CLIENT/WIFI_CLIENT/doit_wifi.c"
	.loc 1 46 1
	.cfi_startproc
.LVL0:
	.loc 1 47 5
	.loc 1 46 1 is_stmt 0
	addi	sp,sp,-16
	.cfi_def_cfa_offset 16
	sw	ra,12(sp)
	.cfi_offset 1, -4
	.loc 1 47 18
	lhu	a5,6(a0)
	.loc 1 47 5
	li	a4,5
	beq	a5,a4,.L2
	li	a4,7
	beq	a5,a4,.L3
	li	a4,4
	bne	a5,a4,.L1
	.loc 1 61 13 is_stmt 1
	.loc 1 61 18
.LBB68:
.LBB69:
	.file 2 "/home/melody/work/Doiting_BL/bl_iot_sdk/components/bl602/freertos_riscv_ram/portable/GCC/RISC-V/portmacro.h"
	.loc 2 151 5
	.loc 2 151 31 is_stmt 0
	lui	a5,%hi(TrapNetCounter)
.LBE69:
.LBE68:
	.loc 1 61 18
	lw	a5,%lo(TrapNetCounter)(a5)
	beq	a5,zero,.L10
	.loc 1 61 108 discriminator 1
	call	xTaskGetTickCountFromISR
.LVL1:
.L11:
	.loc 1 76 1 discriminator 4
	lw	ra,12(sp)
	.cfi_remember_state
	.cfi_restore 1
	.loc 1 61 18 discriminator 4
	lui	a2,%hi(.LC1)
	mv	a1,a0
	lui	a0,%hi(.LC3)
	.loc 1 76 1 discriminator 4
	.loc 1 61 18 discriminator 4
	addi	a2,a2,%lo(.LC1)
	addi	a0,a0,%lo(.LC3)
	.loc 1 76 1 discriminator 4
	addi	sp,sp,16
	.cfi_def_cfa_offset 0
	.loc 1 61 18 discriminator 4
	tail	bl_printk
.LVL2:
.L2:
	.cfi_restore_state
	.loc 1 50 13 is_stmt 1
	.loc 1 50 18
.LBB70:
.LBB71:
	.loc 2 151 5
	.loc 2 151 31 is_stmt 0
	lui	a5,%hi(TrapNetCounter)
.LBE71:
.LBE70:
	.loc 1 50 18
	lw	a5,%lo(TrapNetCounter)(a5)
	beq	a5,zero,.L6
	.loc 1 50 111 discriminator 1
	call	xTaskGetTickCountFromISR
.LVL3:
.L7:
	.loc 1 50 18 discriminator 4
	mv	a1,a0
	lui	a2,%hi(.LC1)
	lui	a0,%hi(.LC2)
	addi	a2,a2,%lo(.LC1)
	addi	a0,a0,%lo(.LC2)
	call	bl_printk
.LVL4:
	.loc 1 51 13 is_stmt 1 discriminator 4
	.loc 1 51 43 is_stmt 0 discriminator 4
	lui	a5,%hi(.LANCHOR0)
	addi	a5,a5,%lo(.LANCHOR0)
	.loc 1 51 15 discriminator 4
	lbu	a4,0(a5)
	beq	a4,zero,.L1
	.loc 1 52 17 is_stmt 1
	.loc 1 52 44 is_stmt 0
	sb	zero,0(a5)
	.loc 1 53 17 is_stmt 1
	.loc 1 53 35 is_stmt 0
	lui	a5,%hi(.LANCHOR1)
	lw	t1,%lo(.LANCHOR1)(a5)
	.loc 1 54 21
	li	a0,1
	.loc 1 53 19
	bne	t1,zero,.L21
.L1:
	.loc 1 76 1
	lw	ra,12(sp)
	.cfi_remember_state
	.cfi_restore 1
	addi	sp,sp,16
	.cfi_def_cfa_offset 0
	jr	ra
.LVL5:
.L6:
	.cfi_restore_state
	.loc 1 50 140 discriminator 2
	call	xTaskGetTickCount
.LVL6:
	j	.L7
.LVL7:
.L10:
	.loc 1 61 137 discriminator 2
	call	xTaskGetTickCount
.LVL8:
	j	.L11
.LVL9:
.L3:
	.loc 1 66 13 is_stmt 1
	.loc 1 66 18
.LBB72:
.LBB73:
	.loc 2 151 5
	.loc 2 151 31 is_stmt 0
	lui	a5,%hi(TrapNetCounter)
.LBE73:
.LBE72:
	.loc 1 66 18
	lw	a5,%lo(TrapNetCounter)(a5)
	beq	a5,zero,.L12
	.loc 1 66 107 discriminator 1
	call	xTaskGetTickCountFromISR
.LVL10:
.L13:
	.loc 1 66 18 discriminator 4
	mv	a1,a0
	lui	a2,%hi(.LC1)
	lui	a0,%hi(.LC4)
	addi	a2,a2,%lo(.LC1)
	addi	a0,a0,%lo(.LC4)
	call	bl_printk
.LVL11:
	.loc 1 67 13 is_stmt 1 discriminator 4
	.loc 1 67 43 is_stmt 0 discriminator 4
	lui	a5,%hi(.LANCHOR0)
	addi	a5,a5,%lo(.LANCHOR0)
	.loc 1 67 15 discriminator 4
	lbu	a3,0(a5)
	li	a4,1
	beq	a3,a4,.L1
	.loc 1 68 17 is_stmt 1
	.loc 1 68 44 is_stmt 0
	sb	a4,0(a5)
	.loc 1 69 17 is_stmt 1
	.loc 1 69 35 is_stmt 0
	lui	a5,%hi(.LANCHOR1)
	lw	t1,%lo(.LANCHOR1)(a5)
	.loc 1 69 19
	beq	t1,zero,.L1
	.loc 1 70 21 is_stmt 1
	li	a0,0
.L21:
	.loc 1 76 1 is_stmt 0
	lw	ra,12(sp)
	.cfi_remember_state
	.cfi_restore 1
	addi	sp,sp,16
	.cfi_def_cfa_offset 0
	.loc 1 70 21
	jr	t1
.LVL12:
.L12:
	.cfi_restore_state
	.loc 1 66 136 discriminator 2
	call	xTaskGetTickCount
.LVL13:
	j	.L13
	.cfi_endproc
.LFE9:
	.size	event_cb_wifi_event, .-event_cb_wifi_event
	.section	.text.tcp_client_conn,"ax",@progbits
	.align	1
	.type	tcp_client_conn, @function
tcp_client_conn:
.LFB14:
	.loc 1 142 48 is_stmt 1
	.cfi_startproc
.LVL14:
	.loc 1 143 5
	.loc 1 143 10
.LBB74:
.LBB75:
	.loc 2 151 5
.LBE75:
.LBE74:
	.loc 1 142 48 is_stmt 0
	addi	sp,sp,-800
	.cfi_def_cfa_offset 800
	sw	s0,792(sp)
	.cfi_offset 8, -8
.LBB77:
.LBB76:
	.loc 2 151 31
	lui	s0,%hi(TrapNetCounter)
.LBE76:
.LBE77:
	.loc 1 143 10
	lw	a5,%lo(TrapNetCounter)(s0)
	.loc 1 142 48
	sw	ra,796(sp)
	sw	s1,788(sp)
	sw	s2,784(sp)
	sw	s3,780(sp)
	sw	s4,776(sp)
	sw	s5,772(sp)
	sw	s6,768(sp)
	sw	s7,764(sp)
	sw	s8,760(sp)
	sw	s9,756(sp)
	.cfi_offset 1, -4
	.cfi_offset 9, -12
	.cfi_offset 18, -16
	.cfi_offset 19, -20
	.cfi_offset 20, -24
	.cfi_offset 21, -28
	.cfi_offset 22, -32
	.cfi_offset 23, -36
	.cfi_offset 24, -40
	.cfi_offset 25, -44
	.loc 1 143 10
	beq	a5,zero,.L23
	.loc 1 143 108 discriminator 1
	call	xTaskGetTickCountFromISR
.LVL15:
.L24:
	.loc 1 143 10 discriminator 4
	mv	a1,a0
	lui	s1,%hi(.LC1)
	lui	a0,%hi(.LC5)
	addi	a2,s1,%lo(.LC1)
	addi	a0,a0,%lo(.LC5)
	call	bl_printk
.LVL16:
	.loc 1 144 2 is_stmt 1 discriminator 4
	.loc 1 145 2 discriminator 4
	.loc 1 146 2 discriminator 4
	li	a2,512
	li	a1,0
	addi	a0,sp,240
	call	memset
.LVL17:
	.loc 1 147 2 discriminator 4
	.loc 1 148 2 discriminator 4
	li	a2,200
	li	a1,0
	addi	a0,sp,40
	call	memset
.LVL18:
	.loc 1 149 2 discriminator 4
	.loc 1 150 2 discriminator 4
	.loc 1 151 2 discriminator 4
.LBB78:
	.loc 1 169 12 is_stmt 0 discriminator 4
	lui	a5,%hi(.LC0)
	lw	a5,%lo(.LC0)(a5)
.LBB79:
.LBB80:
	.loc 1 209 22 discriminator 4
	lui	s5,%hi(errno)
	.loc 1 202 22 discriminator 4
	lui	s4,%hi(.LC8)
.LBE80:
.LBE79:
	.loc 1 169 12 discriminator 4
	mv	s9,a5
.LBB100:
.LBB87:
	.loc 1 202 22 discriminator 4
	lui	s6,%hi(.LC14)
.LVL19:
.L25:
.LBE87:
.LBE100:
.LBE78:
	.loc 1 152 5 is_stmt 1
.LBB109:
	.loc 1 153 6
.LBB101:
.LBB102:
	.loc 1 99 5
.LBE102:
.LBE101:
	.loc 1 153 9 is_stmt 0
	lui	a5,%hi(.LANCHOR0)
	lbu	a5,%lo(.LANCHOR0)(a5)
	bne	a5,zero,.L26
.L56:
	.loc 1 162 4 is_stmt 1 discriminator 4
	li	a0,1000
	call	vTaskDelay
.LVL20:
	.loc 1 163 4 discriminator 4
	j	.L25
.LVL21:
.L23:
.LBE109:
	.loc 1 143 137 is_stmt 0 discriminator 2
	call	xTaskGetTickCount
.LVL22:
	j	.L24
.LVL23:
.L26:
.LBB110:
	.loc 1 158 9 is_stmt 1
	.loc 1 158 21 is_stmt 0
	li	a2,0
	li	a1,1
	li	a0,2
	call	lwip_socket
.LVL24:
	mv	s2,a0
.LVL25:
	.loc 1 160 3 is_stmt 1
	.loc 1 160 6 is_stmt 0
	bge	a0,zero,.L28
	.loc 1 161 4 is_stmt 1
	.loc 1 161 9
.LBB103:
.LBB104:
	.loc 2 151 5
.LBE104:
.LBE103:
	.loc 1 161 9 is_stmt 0
	lw	a5,%lo(TrapNetCounter)(s0)
	beq	a5,zero,.L29
	.loc 1 161 109 discriminator 1
	call	xTaskGetTickCountFromISR
.LVL26:
.L30:
	.loc 1 161 9 discriminator 4
	mv	a1,a0
	lui	a0,%hi(.LC6)
	mv	a3,s2
	addi	a2,s1,%lo(.LC1)
	addi	a0,a0,%lo(.LC6)
	call	bl_printk
.LVL27:
	j	.L56
.LVL28:
.L29:
	.loc 1 161 138 discriminator 2
	call	xTaskGetTickCount
.LVL29:
	j	.L30
.LVL30:
.L28:
	.loc 1 166 9 is_stmt 1
	li	a2,16
	li	a1,0
	addi	a0,sp,24
.LVL31:
	call	memset
.LVL32:
	.loc 1 167 3
	.loc 1 167 26 is_stmt 0
	li	a5,2
	.loc 1 168 26
	li	a0,80
	.loc 1 167 26
	sb	a5,25(sp)
	.loc 1 168 3 is_stmt 1
	.loc 1 168 26 is_stmt 0
	call	lwip_htons
.LVL33:
	.loc 1 168 24
	sh	a0,26(sp)
	.loc 1 169 4 is_stmt 1
	.loc 1 170 4 is_stmt 0
	li	a2,4
	mv	a1,sp
	addi	a0,sp,28
	.loc 1 169 12
	sw	s9,0(sp)
	.loc 1 170 4 is_stmt 1
	call	memcpy
.LVL34:
	.loc 1 171 3
	.loc 1 172 3
	.loc 1 173 3
	li	a2,4
	addi	a1,sp,28
	addi	a0,sp,4
	call	memcpy
.LVL35:
	.loc 1 174 3
	.loc 1 174 8
.LBB105:
.LBB106:
	.loc 2 151 5
.LBE106:
.LBE105:
	.loc 1 174 8 is_stmt 0
	lw	a5,%lo(TrapNetCounter)(s0)
	beq	a5,zero,.L31
	.loc 1 174 118 discriminator 1
	call	xTaskGetTickCountFromISR
.LVL36:
.L32:
	.loc 1 174 8 discriminator 4
	lbu	a5,6(sp)
	lbu	a6,7(sp)
	lbu	a4,5(sp)
	lbu	a3,4(sp)
	mv	a1,a0
	lui	a0,%hi(.LC7)
	addi	a2,s1,%lo(.LC1)
	addi	a0,a0,%lo(.LC7)
	call	bl_printk
.LVL37:
	.loc 1 176 9 is_stmt 1 discriminator 4
.LBB107:
	.loc 1 178 4 discriminator 4
	.loc 1 178 8 is_stmt 0 discriminator 4
	li	a2,16
	addi	a1,sp,24
	mv	a0,s2
	call	lwip_connect
.LVL38:
	.loc 1 179 10 discriminator 4
	lw	a5,%lo(TrapNetCounter)(s0)
	.loc 1 178 7 discriminator 4
	bge	a0,zero,.L33
	.loc 1 179 5 is_stmt 1
	.loc 1 179 10
.LBB88:
.LBB89:
	.loc 2 151 5
.LBE89:
.LBE88:
	.loc 1 179 10 is_stmt 0
	beq	a5,zero,.L34
	.loc 1 179 112 discriminator 1
	call	xTaskGetTickCountFromISR
.LVL39:
.L35:
	.loc 1 179 10 discriminator 4
	mv	a1,a0
	lui	a0,%hi(.LC9)
	mv	a5,s2
	li	a4,179
	addi	a3,s4,%lo(.LC8)
	addi	a2,s1,%lo(.LC1)
	addi	a0,a0,%lo(.LC9)
	call	bl_printk
.LVL40:
	.loc 1 180 5 is_stmt 1 discriminator 4
	.loc 1 180 10 discriminator 4
.LBB90:
.LBB91:
	.loc 2 151 5 discriminator 4
.LBE91:
.LBE90:
	.loc 1 180 10 is_stmt 0 discriminator 4
	lw	a5,%lo(TrapNetCounter)(s0)
	beq	a5,zero,.L36
	.loc 1 180 103 discriminator 1
	call	xTaskGetTickCountFromISR
.LVL41:
.L37:
	.loc 1 180 10 discriminator 4
	mv	a1,a0
	lui	a0,%hi(.LC10)
	addi	a2,s1,%lo(.LC1)
	addi	a0,a0,%lo(.LC10)
	call	bl_printk
.LVL42:
	.loc 1 181 5 is_stmt 1 discriminator 4
	li	a0,4096
	addi	a0,a0,904
	call	vTaskDelay
.LVL43:
	.loc 1 182 5 discriminator 4
	mv	a0,s2
	call	lwip_close
.LVL44:
	.loc 1 183 5 discriminator 4
	j	.L25
.L31:
.LBE107:
	.loc 1 174 147 is_stmt 0 discriminator 2
	call	xTaskGetTickCount
.LVL45:
	j	.L32
.L34:
.LBB108:
	.loc 1 179 141 discriminator 2
	call	xTaskGetTickCount
.LVL46:
	j	.L35
.L36:
	.loc 1 180 132 discriminator 2
	call	xTaskGetTickCount
.LVL47:
	j	.L37
.L33:
	.loc 1 185 4 is_stmt 1
	.loc 1 185 9
.LBB92:
.LBB93:
	.loc 2 151 5
.LBE93:
.LBE92:
	.loc 1 185 9 is_stmt 0
	beq	a5,zero,.L39
	.loc 1 185 103 discriminator 1
	call	xTaskGetTickCountFromISR
.LVL48:
.L40:
	.loc 1 185 9 discriminator 4
	mv	a1,a0
	lui	a0,%hi(.LC11)
	addi	a2,s1,%lo(.LC1)
	addi	a0,a0,%lo(.LC11)
	call	bl_printk
.LVL49:
	.loc 1 186 4 is_stmt 1 discriminator 4
	.loc 1 188 13 discriminator 4
	.loc 1 188 34 is_stmt 0 discriminator 4
	li	a4,10
	.loc 1 189 4 discriminator 4
	li	a1,4096
	.loc 1 188 34 discriminator 4
	li	a5,0
	.loc 1 189 4 discriminator 4
	addi	a3,sp,8
	addi	a2,a1,6
	.loc 1 188 34 discriminator 4
	sw	a4,8(sp)
	.loc 1 189 4 discriminator 4
	addi	a1,a1,-1
	li	a4,16
	mv	a0,s2
	.loc 1 188 34 discriminator 4
	sw	a5,12(sp)
	sw	zero,16(sp)
	.loc 1 189 4 is_stmt 1 discriminator 4
	call	lwip_setsockopt
.LVL50:
	.loc 1 190 4 discriminator 4
	li	a2,200
	li	a1,0
	addi	a0,sp,40
	call	memset
.LVL51:
	.loc 1 192 4 discriminator 4
	lui	a1,%hi(.LC12)
	addi	a1,a1,%lo(.LC12)
	addi	a0,sp,40
	call	sprintf
.LVL52:
	.loc 1 193 4 discriminator 4
	.loc 1 193 9 discriminator 4
.LBB94:
.LBB95:
	.loc 2 151 5 discriminator 4
.LBE95:
.LBE94:
	.loc 1 193 9 is_stmt 0 discriminator 4
	lw	a5,%lo(TrapNetCounter)(s0)
	beq	a5,zero,.L41
	.loc 1 193 107 discriminator 1
	call	xTaskGetTickCountFromISR
.LVL53:
.L42:
	.loc 1 193 9 discriminator 4
	mv	a1,a0
	lui	a0,%hi(.LC13)
	addi	a3,sp,40
	addi	a2,s1,%lo(.LC1)
	addi	a0,a0,%lo(.LC13)
	call	bl_printk
.LVL54:
	.loc 1 194 4 is_stmt 1 discriminator 4
	addi	a0,sp,40
	call	strlen
.LVL55:
	mv	a2,a0
	li	a3,0
	addi	a1,sp,40
	mv	a0,s2
	call	lwip_send
.LVL56:
	.loc 1 196 13 discriminator 4
	.loc 1 196 32 is_stmt 0 discriminator 4
	lui	s3,%hi(.LANCHOR2)
	li	a5,1
	sb	a5,%lo(.LANCHOR2)(s3)
.LBB96:
	.loc 1 209 9 discriminator 4
	li	s8,11
	addi	s3,s3,%lo(.LANCHOR2)
	.loc 1 209 37 discriminator 4
	li	s7,4
.L43:
.LBE96:
	.loc 1 198 4 is_stmt 1
.LBB97:
	.loc 1 199 5
	li	a2,512
	li	a1,0
	addi	a0,sp,240
	call	memset
.LVL57:
	.loc 1 200 5
	.loc 1 200 15 is_stmt 0
	li	a3,0
	li	a2,512
	addi	a1,sp,240
	mv	a0,s2
	call	lwip_recv
.LVL58:
	.loc 1 201 5 is_stmt 1
	.loc 1 201 8 is_stmt 0
	ble	a0,zero,.L44
	.loc 1 202 17 is_stmt 1
	.loc 1 202 22
.LBB81:
.LBB82:
	.loc 2 151 5
.LBE82:
.LBE81:
	.loc 1 202 22 is_stmt 0
	lw	a5,%lo(TrapNetCounter)(s0)
	beq	a5,zero,.L45
	.loc 1 202 115 discriminator 1
	call	xTaskGetTickCountFromISR
.LVL59:
.L46:
	.loc 1 202 22 discriminator 4
	mv	a1,a0
	addi	a5,sp,240
	li	a4,202
	addi	a3,s4,%lo(.LC8)
	addi	a2,s1,%lo(.LC1)
	addi	a0,s6,%lo(.LC14)
	call	bl_printk
.LVL60:
	.loc 1 204 5 is_stmt 1 discriminator 4
	.loc 1 208 5 discriminator 4
	j	.L43
.L39:
.LBE97:
	.loc 1 185 132 is_stmt 0 discriminator 2
	call	xTaskGetTickCount
.LVL61:
	j	.L40
.L41:
	.loc 1 193 136 discriminator 2
	call	xTaskGetTickCount
.LVL62:
	j	.L42
.LVL63:
.L45:
.LBB98:
	.loc 1 202 144 discriminator 2
	call	xTaskGetTickCount
.LVL64:
	j	.L46
.LVL65:
.L44:
	.loc 1 204 5 is_stmt 1
	.loc 1 204 8 is_stmt 0
	bne	a0,zero,.L48
	.loc 1 205 6 is_stmt 1
	.loc 1 205 11
.LBB83:
.LBB84:
	.loc 2 151 5
.LBE84:
.LBE83:
	.loc 1 205 11 is_stmt 0
	lw	a5,%lo(TrapNetCounter)(s0)
	beq	a5,zero,.L49
	.loc 1 205 107 discriminator 1
	call	xTaskGetTickCountFromISR
.LVL66:
.L50:
	.loc 1 205 11 discriminator 4
	mv	a1,a0
	lui	a0,%hi(.LC15)
	mv	a5,s2
	li	a4,205
	addi	a3,s4,%lo(.LC8)
	addi	a2,s1,%lo(.LC1)
	addi	a0,a0,%lo(.LC15)
	call	bl_printk
.LVL67:
	.loc 1 206 6 is_stmt 1 discriminator 4
.L51:
.LBE98:
	.loc 1 217 4
	mv	a0,s2
	call	lwip_close
.LVL68:
	.loc 1 218 4
	.loc 1 218 23 is_stmt 0
	sb	zero,0(s3)
	.loc 1 219 4 is_stmt 1
	j	.L25
.LVL69:
.L49:
.LBB99:
	.loc 1 205 136 is_stmt 0 discriminator 2
	call	xTaskGetTickCount
.LVL70:
	j	.L50
.LVL71:
.L48:
	.loc 1 208 5 is_stmt 1
	.loc 1 209 6
	.loc 1 209 22 is_stmt 0
	lw	a5,%lo(errno)(s5)
	.loc 1 209 9
	beq	a5,s8,.L43
	.loc 1 209 37 discriminator 1
	beq	a5,s7,.L43
	.loc 1 212 7 is_stmt 1
	.loc 1 212 12
.LBB85:
.LBB86:
	.loc 2 151 5
.LBE86:
.LBE85:
	.loc 1 212 12 is_stmt 0
	lw	a5,%lo(TrapNetCounter)(s0)
	beq	a5,zero,.L52
	.loc 1 212 104 discriminator 1
	call	xTaskGetTickCountFromISR
.LVL72:
.L53:
	.loc 1 212 12 discriminator 4
	mv	a1,a0
	lui	a0,%hi(.LC16)
	li	a4,212
	addi	a3,s4,%lo(.LC8)
	addi	a2,s1,%lo(.LC1)
	addi	a0,a0,%lo(.LC16)
	call	bl_printk
.LVL73:
	.loc 1 213 7 is_stmt 1 discriminator 4
	j	.L51
.LVL74:
.L52:
	.loc 1 212 133 is_stmt 0 discriminator 2
	call	xTaskGetTickCount
.LVL75:
	j	.L53
.LBE99:
.LBE108:
.LBE110:
	.cfi_endproc
.LFE14:
	.size	tcp_client_conn, .-tcp_client_conn
	.section	.text.wifi_get_connect_status,"ax",@progbits
	.align	1
	.globl	wifi_get_connect_status
	.type	wifi_get_connect_status, @function
wifi_get_connect_status:
.LFB11:
	.loc 1 98 35 is_stmt 1
	.cfi_startproc
	.loc 1 99 5
	.loc 1 100 1 is_stmt 0
	lui	a5,%hi(.LANCHOR0)
	lbu	a0,%lo(.LANCHOR0)(a5)
	ret
	.cfi_endproc
.LFE11:
	.size	wifi_get_connect_status, .-wifi_get_connect_status
	.section	.text.wifi_setup_sta,"ax",@progbits
	.align	1
	.globl	wifi_setup_sta
	.type	wifi_setup_sta, @function
wifi_setup_sta:
.LFB12:
	.loc 1 104 25 is_stmt 1
	.cfi_startproc
	.loc 1 106 5
	.loc 1 106 10
.LBB111:
.LBB112:
	.loc 2 151 5
	.loc 2 151 31 is_stmt 0
	lui	a5,%hi(TrapNetCounter)
.LBE112:
.LBE111:
	.loc 1 106 10
	lw	a5,%lo(TrapNetCounter)(a5)
	.loc 1 104 25
	addi	sp,sp,-144
	.cfi_def_cfa_offset 144
	sw	ra,140(sp)
	.cfi_offset 1, -4
	.loc 1 106 10
	beq	a5,zero,.L59
	.loc 1 106 102 discriminator 1
	call	xTaskGetTickCountFromISR
.LVL76:
.L60:
	.loc 1 106 10 discriminator 4
	mv	a1,a0
	lui	a2,%hi(.LC1)
	lui	a0,%hi(.LC17)
	addi	a2,a2,%lo(.LC1)
	addi	a0,a0,%lo(.LC17)
	call	bl_printk
.LVL77:
	.loc 1 107 5 is_stmt 1 discriminator 4
	.loc 1 108 5 discriminator 4
	lui	a1,%hi(.LC18)
	addi	a1,a1,%lo(.LC18)
	mv	a0,sp
	call	strcpy
.LVL78:
	.loc 1 109 5 discriminator 4
	lui	a1,%hi(.LC19)
	addi	a1,a1,%lo(.LC19)
	addi	a0,sp,64
	call	strcpy
.LVL79:
	.loc 1 110 5 discriminator 4
	.loc 1 110 39 is_stmt 0 discriminator 4
	call	wifi_mgmr_sta_enable
.LVL80:
	.loc 1 111 5 is_stmt 1 discriminator 4
	addi	a2,sp,64
	mv	a1,sp
	li	a6,0
	li	a5,0
	li	a4,0
	li	a3,0
	call	wifi_mgmr_sta_connect
.LVL81:
	.loc 1 112 5 discriminator 4
	.loc 1 114 1 is_stmt 0 discriminator 4
	lw	ra,140(sp)
	.cfi_remember_state
	.cfi_restore 1
	li	a0,1
	addi	sp,sp,144
	.cfi_def_cfa_offset 0
	jr	ra
.L59:
	.cfi_restore_state
	.loc 1 106 131 discriminator 2
	call	xTaskGetTickCount
.LVL82:
	j	.L60
	.cfi_endproc
.LFE12:
	.size	wifi_setup_sta, .-wifi_setup_sta
	.section	.text.wifi_event_handler,"ax",@progbits
	.align	1
	.globl	wifi_event_handler
	.type	wifi_event_handler, @function
wifi_event_handler:
.LFB13:
	.loc 1 120 53 is_stmt 1
	.cfi_startproc
.LVL83:
	.loc 1 121 5
	.loc 1 120 53 is_stmt 0
	addi	sp,sp,-32
	.cfi_def_cfa_offset 32
	sw	s0,24(sp)
	sw	s1,20(sp)
	lui	a4,%hi(TrapNetCounter)
	sw	ra,28(sp)
	sw	s2,16(sp)
	sw	s3,12(sp)
	.cfi_offset 8, -8
	.cfi_offset 9, -12
	.cfi_offset 1, -4
	.cfi_offset 18, -16
	.cfi_offset 19, -20
	lw	a5,%lo(TrapNetCounter)(a4)
	lui	s1,%hi(.LC8)
	lui	s0,%hi(.LC1)
	.loc 1 121 5
	beq	a0,zero,.L63
	li	a4,1
	mv	s3,a0
	beq	a0,a4,.L64
	.loc 1 137 13 is_stmt 1
	.loc 1 137 18
	.loc 2 151 5
	.loc 1 137 18 is_stmt 0
	beq	a5,zero,.L75
	.loc 1 137 117 discriminator 1
	call	xTaskGetTickCountFromISR
.LVL84:
.L76:
	.loc 1 137 18 discriminator 4
	addi	a2,s0,%lo(.LC1)
	.loc 1 140 1 discriminator 4
	lw	s0,24(sp)
	.cfi_remember_state
	.cfi_restore 8
	lw	ra,28(sp)
	.cfi_restore 1
	lw	s2,16(sp)
	.cfi_restore 18
	.loc 1 137 18 discriminator 4
	mv	a5,s3
	addi	a3,s1,%lo(.LC8)
	.loc 1 140 1 discriminator 4
	lw	s3,12(sp)
	.cfi_restore 19
.LVL85:
	lw	s1,20(sp)
	.cfi_restore 9
	.loc 1 137 18 discriminator 4
	mv	a1,a0
	lui	a0,%hi(.LC24)
	.loc 1 140 1 discriminator 4
	.loc 1 137 18 discriminator 4
	li	a4,137
	addi	a0,a0,%lo(.LC24)
	.loc 1 140 1 discriminator 4
	addi	sp,sp,32
	.cfi_def_cfa_offset 0
	.loc 1 137 18 discriminator 4
	tail	bl_printk
.LVL86:
.L63:
	.cfi_restore_state
	mv	s2,a4
	.loc 1 124 13 is_stmt 1
	.loc 1 124 18
	.loc 2 151 5
	.loc 1 124 18 is_stmt 0
	beq	a5,zero,.L66
	.loc 1 124 115 discriminator 1
	call	xTaskGetTickCountFromISR
.LVL87:
.L67:
	.loc 1 124 18 discriminator 4
	mv	a1,a0
	lui	a0,%hi(.LC20)
	li	a4,124
	addi	a3,s1,%lo(.LC8)
	addi	a2,s0,%lo(.LC1)
	addi	a0,a0,%lo(.LC20)
	call	bl_printk
.LVL88:
	.loc 1 126 2 is_stmt 1 discriminator 4
	.loc 1 126 6 is_stmt 0 discriminator 4
	lui	a5,%hi(.LANCHOR3)
	.loc 1 126 5 discriminator 4
	lw	a4,%lo(.LANCHOR3)(a5)
	bne	a4,zero,.L62
	.loc 1 127 3 is_stmt 1
	.loc 1 127 7 is_stmt 0
	lui	a1,%hi(.LC21)
	lui	a0,%hi(tcp_client_conn)
	addi	a5,a5,%lo(.LANCHOR3)
	li	a4,2
	li	a3,0
	li	a2,1024
	addi	a1,a1,%lo(.LC21)
	addi	a0,a0,%lo(tcp_client_conn)
	call	xTaskCreate
.LVL89:
	.loc 1 127 6
	li	a5,1
	beq	a0,a5,.L62
	.loc 1 128 4 is_stmt 1
	.loc 1 128 9
.LBB113:
.LBB114:
	.loc 2 151 5
.LBE114:
.LBE113:
	.loc 1 128 9 is_stmt 0
	lw	a5,%lo(TrapNetCounter)(s2)
	beq	a5,zero,.L71
	.loc 1 128 121 discriminator 1
	call	xTaskGetTickCountFromISR
.LVL90:
.L72:
	.loc 1 128 9 discriminator 4
	mv	a1,a0
	lui	a0,%hi(.LC22)
	li	a4,128
	addi	a3,s1,%lo(.LC8)
	addi	a2,s0,%lo(.LC1)
	addi	a0,a0,%lo(.LC22)
.L79:
	.loc 1 140 1 discriminator 4
	lw	s0,24(sp)
	.cfi_remember_state
	.cfi_restore 8
	lw	ra,28(sp)
	.cfi_restore 1
	lw	s1,20(sp)
	.cfi_restore 9
	lw	s2,16(sp)
	.cfi_restore 18
	lw	s3,12(sp)
	.cfi_restore 19
	addi	sp,sp,32
	.cfi_def_cfa_offset 0
	.loc 1 134 18 discriminator 4
	tail	bl_printk
.LVL91:
.L66:
	.cfi_restore_state
	.loc 1 124 144 discriminator 2
	call	xTaskGetTickCount
.LVL92:
	j	.L67
.L71:
	.loc 1 128 150 discriminator 2
	call	xTaskGetTickCount
.LVL93:
	j	.L72
.LVL94:
.L64:
	.loc 1 134 13 is_stmt 1
	.loc 1 134 18
	.loc 2 151 5
	.loc 1 134 18 is_stmt 0
	beq	a5,zero,.L73
	.loc 1 134 118 discriminator 1
	call	xTaskGetTickCountFromISR
.LVL95:
.L74:
	.loc 1 134 18 discriminator 4
	mv	a1,a0
	lui	a0,%hi(.LC23)
	li	a4,134
	addi	a3,s1,%lo(.LC8)
	addi	a2,s0,%lo(.LC1)
	addi	a0,a0,%lo(.LC23)
	j	.L79
.LVL96:
.L73:
	.loc 1 134 147 discriminator 2
	call	xTaskGetTickCount
.LVL97:
	j	.L74
.LVL98:
.L75:
	.loc 1 137 146 discriminator 2
	call	xTaskGetTickCount
.LVL99:
	j	.L76
.LVL100:
.L62:
	.loc 1 140 1
	lw	ra,28(sp)
	.cfi_restore 1
	lw	s0,24(sp)
	.cfi_restore 8
	lw	s1,20(sp)
	.cfi_restore 9
	lw	s2,16(sp)
	.cfi_restore 18
	lw	s3,12(sp)
	.cfi_restore 19
	addi	sp,sp,32
	.cfi_def_cfa_offset 0
	jr	ra
	.cfi_endproc
.LFE13:
	.size	wifi_event_handler, .-wifi_event_handler
	.section	.text.wifi_init,"ax",@progbits
	.align	1
	.globl	wifi_init
	.type	wifi_init, @function
wifi_init:
.LFB15:
	.loc 1 232 52 is_stmt 1
	.cfi_startproc
.LVL101:
	.loc 1 234 2
	.loc 1 234 7
.LBB119:
.LBB120:
	.loc 2 151 5
	.loc 2 151 31 is_stmt 0
	lui	a5,%hi(TrapNetCounter)
.LBE120:
.LBE119:
	.loc 1 234 7
	lw	a5,%lo(TrapNetCounter)(a5)
	.loc 1 232 52
	addi	sp,sp,-16
	.cfi_def_cfa_offset 16
	sw	s1,4(sp)
	sw	ra,12(sp)
	sw	s0,8(sp)
	.cfi_offset 9, -12
	.cfi_offset 1, -4
	.cfi_offset 8, -8
	.loc 1 232 52
	mv	s1,a0
	.loc 1 234 7
	beq	a5,zero,.L81
	.loc 1 234 94 discriminator 1
	call	xTaskGetTickCountFromISR
.LVL102:
.L82:
	.loc 1 234 7 discriminator 4
	mv	a1,a0
	lui	a2,%hi(.LC1)
	lui	a0,%hi(.LC25)
	addi	a2,a2,%lo(.LC1)
	addi	a0,a0,%lo(.LC25)
	call	bl_printk
.LVL103:
	.loc 1 235 5 is_stmt 1 discriminator 4
.LBB121:
.LBB122:
	.loc 1 81 5 discriminator 4
	.loc 1 84 5 discriminator 4
	.loc 1 84 11 is_stmt 0 discriminator 4
	lui	a5,%hi(.LANCHOR4)
	addi	a5,a5,%lo(.LANCHOR4)
	.loc 1 84 8 discriminator 4
	lbu	a3,0(a5)
	li	a4,1
	bne	a3,a4,.L83
	.loc 1 85 9 is_stmt 1
	lui	a0,%hi(.LC26)
	addi	a0,a0,%lo(.LC26)
	call	puts
.LVL104:
	.loc 1 86 9
.L84:
.LBE122:
.LBE121:
	.loc 1 236 5 discriminator 4
	.loc 1 241 1 is_stmt 0 discriminator 4
	lw	s0,8(sp)
	.cfi_remember_state
	.cfi_restore 8
	.loc 1 236 20 discriminator 4
	lui	a5,%hi(.LANCHOR1)
	sw	s1,%lo(.LANCHOR1)(a5)
	.loc 1 237 5 is_stmt 1 discriminator 4
	.loc 1 238 2 discriminator 4
	.loc 1 241 1 is_stmt 0 discriminator 4
	lw	ra,12(sp)
	.cfi_restore 1
	lw	s1,4(sp)
	.cfi_restore 9
.LVL105:
	.loc 1 238 2 discriminator 4
	lui	a0,%hi(event_cb_wifi_event)
	.loc 1 241 1 discriminator 4
	.loc 1 238 2 discriminator 4
	addi	a0,a0,%lo(event_cb_wifi_event)
	.loc 1 241 1 discriminator 4
	addi	sp,sp,16
	.cfi_def_cfa_offset 0
	.loc 1 238 2 discriminator 4
	tail	wifi_set_event_cb
.LVL106:
.L81:
	.cfi_restore_state
	.loc 1 234 123 discriminator 2
	call	xTaskGetTickCount
.LVL107:
	j	.L82
.LVL108:
.L83:
.LBB124:
.LBB123:
	.loc 1 88 5 is_stmt 1
	.loc 1 88 21 is_stmt 0
	sb	a4,0(a5)
	.loc 1 90 5 is_stmt 1
	li	s0,1000
	.loc 1 90 41 is_stmt 0
	call	bl_timer_now_us
.LVL109:
	.loc 1 90 5
	divu	a1,a0,s0
	lui	a0,%hi(.LC27)
	addi	a0,a0,%lo(.LC27)
	call	printf
.LVL110:
	.loc 1 91 5 is_stmt 1
	call	hal_wifi_start_firmware_task
.LVL111:
	.loc 1 93 5
	.loc 1 93 49 is_stmt 0
	call	bl_timer_now_us
.LVL112:
	.loc 1 93 5
	divu	a1,a0,s0
	lui	a0,%hi(.LC28)
	addi	a0,a0,%lo(.LC28)
	call	printf
.LVL113:
	.loc 1 94 5 is_stmt 1
	li	a2,0
	li	a1,1
	li	a0,2
	call	aos_post_event
.LVL114:
	j	.L84
.LBE123:
.LBE124:
	.cfi_endproc
.LFE15:
	.size	wifi_init, .-wifi_init
	.globl	tcpc_task_handle
	.globl	b_start_keep_alive
	.section	.rodata.event_cb_wifi_event.str1.4,"aMS",@progbits,1
	.align	2
.LC1:
	.string	"wifi"
	.zero	3
.LC2:
	.string	"\033[32m[%10u][%s] wifi disconnect\033[0m\r\n"
	.zero	2
.LC3:
	.string	"\033[32m[%10u][%s] wifi connect\033[0m\r\n"
	.zero	1
.LC4:
	.string	"\033[32m[%10u][%s] wifi get ip\033[0m\r\n"
	.section	.rodata.tcp_client_conn.str1.4,"aMS",@progbits,1
	.align	2
.LC5:
	.string	"\033[32m[%10u][%s] tcp_client_conn init\033[0m\r\n"
	.zero	1
.LC6:
	.string	"\033[32m[%10u][%s] create socket fail: %d\033[0m\r\n"
	.zero	3
.LC7:
	.string	"\033[32m[%10u][%s] connectting server:(%d.%d.%d.%d)\033[0m\r\n"
	.zero	1
.LC8:
	.string	"doit_wifi.c"
.LC9:
	.string	"\033[31m[%10u][%s %s:%4d] client connect %d\033[0m\r\n"
	.zero	1
.LC10:
	.string	"\033[32m[%10u][%s] connect failed!\033[0m\r\n"
	.zero	2
.LC11:
	.string	"\033[32m[%10u][%s] connect success!\033[0m\r\n"
	.zero	1
.LC12:
	.string	"hello"
	.zero	2
.LC13:
	.string	"\033[32m[%10u][%s] \nsubscribe buff: %s\033[0m\r\n"
	.zero	2
.LC14:
	.string	"\033[31m[%10u][%s %s:%4d] recv: %s\033[0m\r\n"
	.zero	2
.LC15:
	.string	"\033[31m[%10u][%s %s:%4d] close fd %d\033[0m\r\n"
	.zero	3
.LC16:
	.string	"\033[31m[%10u][%s %s:%4d] len < 0\033[0m\r\n"
	.section	.rodata.wifi_event_handler.str1.4,"aMS",@progbits,1
	.align	2
.LC20:
	.string	"\033[31m[%10u][%s %s:%4d] wifi_connect\033[0m\r\n"
	.zero	2
.LC21:
	.string	"tcp_client_conn"
.LC22:
	.string	"\033[31m[%10u][%s %s:%4d] create tcp_client_conn fail\033[0m\r\n"
	.zero	3
.LC23:
	.string	"\033[31m[%10u][%s %s:%4d] wifi_disconnect\033[0m\r\n"
	.zero	3
.LC24:
	.string	"\033[31m[%10u][%s %s:%4d] wifi_event: %d\033[0m\r\n"
	.section	.rodata.wifi_init.str1.4,"aMS",@progbits,1
	.align	2
.LC25:
	.string	"\033[32m[%10u][%s] wifi init\033[0m\r\n"
.LC26:
	.string	"Wi-Fi Stack Started already!!!\r\n"
	.zero	3
.LC27:
	.string	"Start Wi-Fi fw @%lums\r\n"
.LC28:
	.string	"Start Wi-Fi fw is Done @%lums\r\n"
	.section	.rodata.wifi_setup_sta.str1.4,"aMS",@progbits,1
	.align	2
.LC17:
	.string	"\033[32m[%10u][%s] wifi_setup_sta\033[0m\r\n"
	.zero	3
.LC18:
	.string	"LanHe-2.4G"
	.zero	1
.LC19:
	.string	"ilanhe*2021"
	.section	.sbss.b_start_keep_alive,"aw",@nobits
	.set	.LANCHOR2,. + 0
	.type	b_start_keep_alive, @object
	.size	b_start_keep_alive, 1
b_start_keep_alive:
	.zero	1
	.section	.sbss.stack_wifi_init.8754,"aw",@nobits
	.set	.LANCHOR4,. + 0
	.type	stack_wifi_init.8754, @object
	.size	stack_wifi_init.8754, 1
stack_wifi_init.8754:
	.zero	1
	.section	.sbss.static_wifi_cb,"aw",@nobits
	.align	2
	.set	.LANCHOR1,. + 0
	.type	static_wifi_cb, @object
	.size	static_wifi_cb, 4
static_wifi_cb:
	.zero	4
	.section	.sbss.static_wifi_connect_status,"aw",@nobits
	.set	.LANCHOR0,. + 0
	.type	static_wifi_connect_status, @object
	.size	static_wifi_connect_status, 1
static_wifi_connect_status:
	.zero	1
	.section	.sbss.tcpc_task_handle,"aw",@nobits
	.align	2
	.set	.LANCHOR3,. + 0
	.type	tcpc_task_handle, @object
	.size	tcpc_task_handle, 4
tcpc_task_handle:
	.zero	4
	.section	.srodata,"a"
	.align	2
.LC0:
	.byte	-64
	.byte	-88
	.byte	120
	.byte	-43
	.text
.Letext0:
	.file 3 "/home/melody/work/Doiting_BL/bl_iot_sdk/customer_app/WIFI_CLIENT/WIFI_CLIENT/doit_wifi.h"
	.file 4 "/home/melody/work/Doiting_BL/bl_iot_sdk/toolchain/riscv/Linux/lib/gcc/riscv64-unknown-elf/8.3.0/include/stdint-gcc.h"
	.file 5 "/home/melody/work/Doiting_BL/bl_iot_sdk/components/bl602/freertos_riscv_ram/config/task.h"
	.file 6 "/home/melody/work/Doiting_BL/bl_iot_sdk/components/bl602/freertos_riscv_ram/config/timers.h"
	.file 7 "/home/melody/work/Doiting_BL/bl_iot_sdk/components/stage/yloop/include/aos/yloop.h"
	.file 8 "/home/melody/work/Doiting_BL/bl_iot_sdk/components/network/lwip/lwip-port/arch/cc.h"
	.file 9 "/home/melody/work/Doiting_BL/bl_iot_sdk/toolchain/riscv/Linux/riscv64-unknown-elf/include/machine/_default_types.h"
	.file 10 "/home/melody/work/Doiting_BL/bl_iot_sdk/toolchain/riscv/Linux/lib/gcc/riscv64-unknown-elf/8.3.0/include/stddef.h"
	.file 11 "/home/melody/work/Doiting_BL/bl_iot_sdk/toolchain/riscv/Linux/riscv64-unknown-elf/include/sys/_types.h"
	.file 12 "/home/melody/work/Doiting_BL/bl_iot_sdk/toolchain/riscv/Linux/riscv64-unknown-elf/include/sys/reent.h"
	.file 13 "/home/melody/work/Doiting_BL/bl_iot_sdk/toolchain/riscv/Linux/riscv64-unknown-elf/include/sys/lock.h"
	.file 14 "/home/melody/work/Doiting_BL/bl_iot_sdk/toolchain/riscv/Linux/riscv64-unknown-elf/include/sys/_timeval.h"
	.file 15 "/home/melody/work/Doiting_BL/bl_iot_sdk/toolchain/riscv/Linux/riscv64-unknown-elf/include/sys/types.h"
	.file 16 "/home/melody/work/Doiting_BL/bl_iot_sdk/toolchain/riscv/Linux/riscv64-unknown-elf/include/stdlib.h"
	.file 17 "/home/melody/work/Doiting_BL/bl_iot_sdk/toolchain/riscv/Linux/riscv64-unknown-elf/include/ctype.h"
	.file 18 "/home/melody/work/Doiting_BL/bl_iot_sdk/components/network/lwip/src/include/lwip/err.h"
	.file 19 "/home/melody/work/Doiting_BL/bl_iot_sdk/components/network/lwip/src/include/lwip/ip4_addr.h"
	.file 20 "/home/melody/work/Doiting_BL/bl_iot_sdk/components/network/lwip/src/include/lwip/ip_addr.h"
	.file 21 "/home/melody/work/Doiting_BL/bl_iot_sdk/components/network/lwip/src/include/lwip/pbuf.h"
	.file 22 "/home/melody/work/Doiting_BL/bl_iot_sdk/components/network/lwip/src/include/lwip/mem.h"
	.file 23 "/home/melody/work/Doiting_BL/bl_iot_sdk/components/network/lwip/src/include/lwip/priv/memp_priv.h"
	.file 24 "/home/melody/work/Doiting_BL/bl_iot_sdk/components/network/lwip/src/include/lwip/stats.h"
	.file 25 "/home/melody/work/Doiting_BL/bl_iot_sdk/components/network/lwip/src/include/lwip/memp.h"
	.file 26 "/home/melody/work/Doiting_BL/bl_iot_sdk/components/network/lwip/src/include/lwip/netif.h"
	.file 27 "/home/melody/work/Doiting_BL/bl_iot_sdk/components/bl602/bl602_wifidrv/bl60x_wifi_driver/include/wifi_mgmr_ext.h"
	.file 28 "/home/melody/work/Doiting_BL/bl_iot_sdk/components/network/lwip/src/include/lwip/inet.h"
	.file 29 "/home/melody/work/Doiting_BL/bl_iot_sdk/components/network/lwip/src/include/lwip/errno.h"
	.file 30 "/home/melody/work/Doiting_BL/bl_iot_sdk/components/network/lwip/src/include/lwip/sockets.h"
	.file 31 "/home/melody/work/Doiting_BL/bl_iot_sdk/components/network/lwip/src/include/lwip/netdb.h"
	.file 32 "/home/melody/work/Doiting_BL/bl_iot_sdk/components/bl602/bl602_std/bl602_std/RISCV/Device/Bouffalo/BL602/Startup/system_bl602.h"
	.file 33 "/home/melody/work/Doiting_BL/bl_iot_sdk/components/bl602/bl602_std/bl602_std/StdDriver/Inc/bl602_common.h"
	.file 34 "/home/melody/work/Doiting_BL/bl_iot_sdk/toolchain/riscv/Linux/riscv64-unknown-elf/include/stdio.h"
	.file 35 "/home/melody/work/Doiting_BL/bl_iot_sdk/components/hal_drv/bl602_hal/bl_timer.h"
	.file 36 "/home/melody/work/Doiting_BL/bl_iot_sdk/components/hal_drv/bl602_hal/hal_wifi.h"
	.file 37 "/home/melody/work/Doiting_BL/bl_iot_sdk/components/utils/include/utils_log.h"
	.file 38 "/home/melody/work/Doiting_BL/bl_iot_sdk/toolchain/riscv/Linux/riscv64-unknown-elf/include/string.h"
	.file 39 "/home/melody/work/Doiting_BL/bl_iot_sdk/components/network/lwip/src/include/lwip/def.h"