	.file	"payload.c"
	.option nopic
	.attribute arch, "rv32i2p0_m2p0_f2p0_c2p0"
	.attribute unaligned_access, 0
	.attribute stack_align, 16
	.text
.Ltext0:
	.cfi_sections	.debug_frame
	.section	.text.__payload_write,"ax",@progbits
	.align	1
	.type	__payload_write, @function
__payload_write:
.LFB10:
	.file 1 "/home/melody/work/Doiting_BL/bl_iot_sdk/components/stage/blsync_ble/src/payload.c"
	.loc 1 38 1
	.cfi_startproc
.LVL0:
	.loc 1 39 5
	.loc 1 40 5
	.loc 1 42 5
	.loc 1 42 8 is_stmt 0
	blt	a6,zero,.L7
	.loc 1 38 1
	addi	sp,sp,-16
	.cfi_def_cfa_offset 16
	sw	s1,4(sp)
	sw	ra,12(sp)
	sw	s0,8(sp)
	.cfi_offset 9, -12
	.cfi_offset 1, -4
	.cfi_offset 8, -8
	mv	a7,a1
	mv	a1,a4
.LVL1:
	.loc 1 46 8
	lbu	a4,8(a0)
.LVL2:
	slli	a6,a6,16
.LVL3:
	mv	s1,a2
	.loc 1 46 5 is_stmt 1
	srli	a6,a6,16
	.loc 1 46 8 is_stmt 0
	bne	a4,zero,.L3
	.loc 1 48 9 is_stmt 1
.LVL4:
	.loc 1 49 9
	.loc 1 48 20 is_stmt 0
	addi	a6,a6,-1
.LVL5:
	.loc 1 49 57
	slli	a6,a6,16
.LVL6:
	srai	a6,a6,16
	ble	a6,a5,.L4
	mv	a6,a5
.L4:
	.loc 1 49 22
	andi	s0,a6,0xff
.LVL7:
	.loc 1 50 9 is_stmt 1
	.loc 1 50 12 is_stmt 0
	li	a5,4
.LVL8:
	.loc 1 43 16
	li	a0,-2
.LVL9:
	.loc 1 50 12
	bne	s0,a5,.L1
	.loc 1 54 9 is_stmt 1
	.loc 1 54 20 is_stmt 0
	sb	a3,0(a7)
	.loc 1 55 9 is_stmt 1
	li	a2,4
.LVL10:
	addi	a0,a7,1
	call	memcpy
.LVL11:
	.loc 1 56 9
	.loc 1 56 18 is_stmt 0
	lbu	a5,0(s1)
	addi	a5,a5,5
.L13:
	.loc 1 65 18
	sb	a5,0(s1)
	.loc 1 66 9 is_stmt 1
	.loc 1 68 5
	.loc 1 68 12 is_stmt 0
	mv	a0,s0
.L1:
	.loc 1 69 1
	lw	ra,12(sp)
	.cfi_remember_state
	.cfi_restore 1
	lw	s0,8(sp)
	.cfi_restore 8
.LVL12:
	lw	s1,4(sp)
	.cfi_restore 9
.LVL13:
	addi	sp,sp,16
	.cfi_def_cfa_offset 0
	jr	ra
.LVL14:
.L3:
	.cfi_restore_state
	.loc 1 59 9 is_stmt 1
	.loc 1 60 9
	.loc 1 59 20 is_stmt 0
	addi	a6,a6,-2
.LVL15:
	.loc 1 60 57
	slli	a6,a6,16
	srai	a6,a6,16
	ble	a6,a5,.L6
	mv	a6,a5
.L6:
	.loc 1 60 22
	andi	s0,a6,0xff
.LVL16:
	.loc 1 62 9 is_stmt 1
	.loc 1 62 20 is_stmt 0
	sb	s0,0(a7)
	.loc 1 63 9 is_stmt 1
	.loc 1 63 20 is_stmt 0
	sb	a3,1(a7)
	.loc 1 64 9 is_stmt 1
	mv	a2,s0
	addi	a0,a7,2
.LVL17:
	call	memcpy
.LVL18:
	.loc 1 65 9
	.loc 1 65 18 is_stmt 0
	lbu	a5,0(s1)
	addi	a5,a5,2
	add	a5,s0,a5
	j	.L13
.LVL19:
.L7:
	.cfi_def_cfa_offset 0
	.cfi_restore 1
	.cfi_restore 8
	.cfi_restore 9
	.loc 1 43 16
	li	a0,-2
.LVL20:
	.loc 1 69 1
	ret
	.cfi_endproc
.LFE10:
	.size	__payload_write, .-__payload_write
	.section	.text.__payload_read,"ax",@progbits
	.align	1
	.type	__payload_read, @function
__payload_read:
.LFB9:
	.loc 1 8 1 is_stmt 1
	.cfi_startproc
.LVL21:
	.loc 1 9 5
	.loc 1 11 5
	.loc 1 8 1 is_stmt 0
	addi	sp,sp,-16
	.cfi_def_cfa_offset 16
	sw	ra,12(sp)
	.cfi_offset 1, -4
	.loc 1 8 1
	mv	a6,a1
	.loc 1 11 8
	lbu	a1,8(a0)
.LVL22:
	bne	a1,zero,.L15
	.loc 1 13 9 is_stmt 1
	.loc 1 13 12 is_stmt 0
	li	a1,5
	.loc 1 14 20
	li	a0,-2
.LVL23:
	.loc 1 13 12
	bne	a5,a1,.L14
.LVL24:
.LBB4:
.LBB5:
	.loc 1 17 9 is_stmt 1
	.loc 1 17 18 is_stmt 0
	li	a5,4
.LVL25:
	sb	a5,0(a3)
	.loc 1 18 9 is_stmt 1
	.loc 1 18 28 is_stmt 0
	lbu	a5,0(a4)
	.loc 1 19 9
	addi	a1,a4,1
	.loc 1 18 19
	sb	a5,0(a2)
	.loc 1 19 9 is_stmt 1
	lbu	a2,0(a3)
.LVL26:
.L20:
.LBE5:
.LBE4:
	.loc 1 28 9 is_stmt 0
	mv	a0,a6
	call	memcpy
.LVL27:
	.loc 1 31 12
	li	a0,0
.L14:
	.loc 1 32 1
	lw	ra,12(sp)
	.cfi_remember_state
	.cfi_restore 1
	addi	sp,sp,16
	.cfi_def_cfa_offset 0
	jr	ra
.LVL28:
.L15:
	.cfi_restore_state
	.loc 1 22 9 is_stmt 1
	.loc 1 22 37 is_stmt 0
	lbu	a1,0(a4)
	.loc 1 22 22
	addi	a5,a5,-2
.LVL29:
	.loc 1 14 20
	li	a0,-2
.LVL30:
	.loc 1 22 12
	bne	a5,a1,.L14
	.loc 1 26 9 is_stmt 1
	.loc 1 26 18 is_stmt 0
	sb	a5,0(a3)
	.loc 1 27 9 is_stmt 1
	.loc 1 27 19 is_stmt 0
	lbu	a5,1(a4)
	.loc 1 28 9
	addi	a1,a4,2
	.loc 1 27 19
	sb	a5,0(a2)
	.loc 1 28 9 is_stmt 1
	lbu	a2,0(a3)
.LVL31:
	j	.L20
	.cfi_endproc
.LFE9:
	.size	__payload_read, .-__payload_read
	.section	.text.pro_payload_init,"ax",@progbits
	.align	1
	.globl	pro_payload_init
	.type	pro_payload_init, @function
pro_payload_init:
.LFB11:
	.loc 1 78 1
	.cfi_startproc
.LVL32:
	.loc 1 79 5
	.loc 1 79 18 is_stmt 0
	lui	a5,%hi(.LANCHOR0)
	addi	a5,a5,%lo(.LANCHOR0)
	sw	a5,0(a0)
	.loc 1 80 5 is_stmt 1
	.loc 1 80 19 is_stmt 0
	sw	a1,4(a0)
	.loc 1 81 5 is_stmt 1
	.loc 1 82 1 is_stmt 0
	ret
	.cfi_endproc
.LFE11:
	.size	pro_payload_init, .-pro_payload_init
	.section	.sdata2.__g_pyld_func,"a"
	.align	2
	.set	.LANCHOR0,. + 0
	.type	__g_pyld_func, @object
	.size	__g_pyld_func, 8
__g_pyld_func:
	.word	__payload_read
	.word	__payload_write
	.text
.Letext0:
	.file 2 "/home/melody/work/Doiting_BL/bl_iot_sdk/toolchain/riscv/Linux/lib/gcc/riscv64-unknown-elf/8.3.0/include/stdint-gcc.h"
	.file 3 "/home/melody/work/Doiting_BL/bl_iot_sdk/toolchain/riscv/Linux/lib/gcc/riscv64-unknown-elf/8.3.0/include/stddef.h"
	.file 4 "/home/melody/work/Doiting_BL/bl_iot_sdk/toolchain/riscv/Linux/riscv64-unknown-elf/include/sys/_types.h"
	.file 5 "/home/melody/work/Doiting_BL/bl_iot_sdk/toolchain/riscv/Linux/riscv64-unknown-elf/include/sys/reent.h"
	.file 6 "/home/melody/work/Doiting_BL/bl_iot_sdk/toolchain/riscv/Linux/riscv64-unknown-elf/include/sys/lock.h"
	.file 7 "/home/melody/work/Doiting_BL/bl_iot_sdk/components/stage/blsync_ble/inc/payload.h"
	.file 8 "/home/melody/work/Doiting_BL/bl_iot_sdk/toolchain/riscv/Linux/riscv64-unknown-elf/include/string.h"