	.file	"main.c"
	.option nopic
	.attribute arch, "rv32i2p0_m2p0_f2p0_c2p0"
	.attribute unaligned_access, 0
	.attribute stack_align, 16
	.text
.Ltext0:
	.cfi_sections	.debug_frame
	.section	.text.cmd_stack_wifi,"ax",@progbits
	.align	1
	.type	cmd_stack_wifi, @function
cmd_stack_wifi:
.LFB72:
	.file 1 "/home/melody/work/Doiting_BL/bl_iot_sdk/customer_app/sdk_app_http_client_socket/sdk_app_http_client_socket/main.c"
	.loc 1 438 1
	.cfi_startproc
.LVL0:
	.loc 1 440 5
	.loc 1 443 5
	.loc 1 443 11 is_stmt 0
	lui	a5,%hi(.LANCHOR0)
	addi	a5,a5,%lo(.LANCHOR0)
	.loc 1 443 8
	lbu	a3,0(a5)
.LVL1:
	li	a4,1
	bne	a3,a4,.L2
	.loc 1 444 9 is_stmt 1
	lui	a0,%hi(.LC0)
.LVL2:
	addi	a0,a0,%lo(.LC0)
	tail	puts
.LVL3:
.L2:
	.loc 1 447 5
	.loc 1 438 1 is_stmt 0
	addi	sp,sp,-16
	.cfi_def_cfa_offset 16
	sw	ra,12(sp)
	.cfi_offset 1, -4
	.loc 1 447 21
	sb	a4,0(a5)
	.loc 1 448 5 is_stmt 1
	call	hal_wifi_start_firmware_task
.LVL4:
	.loc 1 450 5
	.loc 1 452 1 is_stmt 0
	lw	ra,12(sp)
	.cfi_restore 1
	.loc 1 450 5
	li	a2,0
	.loc 1 452 1
	.loc 1 450 5
	li	a1,1
	li	a0,2
	.loc 1 452 1
	addi	sp,sp,16
	.cfi_def_cfa_offset 0
	.loc 1 450 5
	tail	aos_post_event
.LVL5:
	.cfi_endproc
.LFE72:
	.size	cmd_stack_wifi, .-cmd_stack_wifi
	.section	.text.proc_hellow_entry,"ax",@progbits
	.align	1
	.type	proc_hellow_entry, @function
proc_hellow_entry:
.LFB65:
	.loc 1 138 1 is_stmt 1
	.cfi_startproc
.LVL6:
	.loc 1 139 5
	.loc 1 138 1 is_stmt 0
	addi	sp,sp,-16
	.cfi_def_cfa_offset 16
	sw	s0,8(sp)
	.loc 1 139 5
	li	a0,500
.LVL7:
	.cfi_offset 8, -8
	.loc 1 143 9
	li	s0,8192
	.loc 1 138 1
	sw	s1,4(sp)
	sw	s2,0(sp)
	sw	ra,12(sp)
	.cfi_offset 9, -12
	.cfi_offset 18, -16
	.cfi_offset 1, -4
	.loc 1 142 9
	lui	s2,%hi(.LANCHOR1)
	.loc 1 139 5
	call	vTaskDelay
.LVL8:
	.loc 1 142 9
	lui	s1,%hi(.LC1)
	.loc 1 143 9
	addi	s0,s0,1808
.L6:
	.loc 1 141 5 is_stmt 1 discriminator 1
	.loc 1 142 9 discriminator 1
	addi	a1,s2,%lo(.LANCHOR1)
	addi	a0,s1,%lo(.LC1)
	call	printf
.LVL9:
	.loc 1 143 9 discriminator 1
	mv	a0,s0
	call	vTaskDelay
.LVL10:
	j	.L6
	.cfi_endproc
.LFE65:
	.size	proc_hellow_entry, .-proc_hellow_entry
	.section	.text.char_to_hex,"ax",@progbits
	.align	1
	.type	char_to_hex, @function
char_to_hex:
.LFB66:
	.loc 1 149 1
	.cfi_startproc
.LVL11:
	.loc 1 150 5
	.loc 1 152 5
	.loc 1 149 1 is_stmt 0
	mv	a5,a0
	.loc 1 152 21
	addi	a0,a0,-48
.LVL12:
	andi	a0,a0,0xff
	.loc 1 152 7
	li	a4,9
	bleu	a0,a4,.L9
	.loc 1 154 10 is_stmt 1
	.loc 1 154 26 is_stmt 0
	addi	a4,a5,-97
	.loc 1 154 12
	andi	a4,a4,0xff
	li	a3,5
	bgtu	a4,a3,.L10
	.loc 1 155 9 is_stmt 1
	.loc 1 155 12 is_stmt 0
	addi	a5,a5,-87
.L12:
.LBB12:
.LBB13:
	.loc 1 157 12
	andi	a0,a5,0xff
.LVL13:
.L9:
.LBE13:
.LBE12:
	.loc 1 161 5 is_stmt 1
	.loc 1 162 1 is_stmt 0
	ret
.LVL14:
.L10:
.LBB15:
.LBB14:
	.loc 1 156 10 is_stmt 1
	.loc 1 156 26 is_stmt 0
	addi	a4,a5,-65
	.loc 1 156 12
	andi	a4,a4,0xff
	.loc 1 159 12
	li	a0,0
	.loc 1 156 12
	bgtu	a4,a3,.L9
	.loc 1 157 9 is_stmt 1
	.loc 1 157 12 is_stmt 0
	addi	a5,a5,-55
.LVL15:
	j	.L12
.LBE14:
.LBE15:
	.cfi_endproc
.LFE66:
	.size	char_to_hex, .-char_to_hex
	.section	.text.event_cb_wifi_event,"ax",@progbits
	.align	1
	.type	event_cb_wifi_event, @function
event_cb_wifi_event:
.LFB71:
	.loc 1 327 1 is_stmt 1
	.cfi_startproc
.LVL16:
	.loc 1 328 5
	.loc 1 329 5
	.loc 1 331 5
	.loc 1 327 1 is_stmt 0
	addi	sp,sp,-304
	.cfi_def_cfa_offset 304
	sw	ra,300(sp)
	sw	s0,296(sp)
	sw	s1,292(sp)
	sw	s2,288(sp)
	sw	s3,284(sp)
	sw	s4,280(sp)
	sw	s5,276(sp)
	sw	s6,272(sp)
	sw	s7,268(sp)
	sw	s8,264(sp)
	sw	s9,260(sp)
	.cfi_offset 1, -4
	.cfi_offset 8, -8
	.cfi_offset 9, -12
	.cfi_offset 18, -16
	.cfi_offset 19, -20
	.cfi_offset 20, -24
	.cfi_offset 21, -28
	.cfi_offset 22, -32
	.cfi_offset 23, -36
	.cfi_offset 24, -40
	.cfi_offset 25, -44
	.loc 1 331 18
	lhu	s1,6(a0)
	.loc 1 331 5
	li	a4,16
	addi	a5,s1,-1
	slli	a5,a5,16
	srli	a5,a5,16
	bgtu	a5,a4,.L14
	lui	a4,%hi(.L16)
	slli	a5,a5,2
	addi	a4,a4,%lo(.L16)
	add	a5,a5,a4
	lw	a5,0(a5)
	mv	s0,a0
	jr	a5
	.section	.rodata.event_cb_wifi_event,"a",@progbits
	.align	2
	.align	2
.L16:
	.word	.L28
	.word	.L27
	.word	.L26
	.word	.L24
	.word	.L25
	.word	.L24
	.word	.L23
	.word	.L22
	.word	.L21
	.word	.L14
	.word	.L14
	.word	.L14
	.word	.L20
	.word	.L19
	.word	.L18
	.word	.L17
	.word	.L15
	.section	.text.event_cb_wifi_event
.L28:
	.loc 1 334 13 is_stmt 1
	call	aos_now_ms
.LVL17:
	mv	a2,a0
	lui	a0,%hi(.LC3)
	mv	a3,a1
	addi	a0,a0,%lo(.LC3)
	call	printf
.LVL18:
	.loc 1 335 13
	lui	a0,%hi(.LANCHOR2)
	addi	a0,a0,%lo(.LANCHOR2)
	call	wifi_mgmr_start_background
.LVL19:
	.loc 1 337 9
.L13:
	.loc 1 435 1 is_stmt 0
	lw	ra,300(sp)
	.cfi_remember_state
	.cfi_restore 1
	lw	s0,296(sp)
	.cfi_restore 8
	lw	s1,292(sp)
	.cfi_restore 9
	lw	s2,288(sp)
	.cfi_restore 18
	lw	s3,284(sp)
	.cfi_restore 19
	lw	s4,280(sp)
	.cfi_restore 20
	lw	s5,276(sp)
	.cfi_restore 21
	lw	s6,272(sp)
	.cfi_restore 22
	lw	s7,268(sp)
	.cfi_restore 23
	lw	s8,264(sp)
	.cfi_restore 24
	lw	s9,260(sp)
	.cfi_restore 25
	addi	sp,sp,304
	.cfi_def_cfa_offset 0
	jr	ra
.LVL20:
.L27:
	.cfi_restore_state
	.loc 1 340 13 is_stmt 1
	call	aos_now_ms
.LVL21:
	mv	a2,a0
	lui	a0,%hi(.LC4)
	mv	a3,a1
	addi	a0,a0,%lo(.LC4)
	call	printf
.LVL22:
	.loc 1 341 13
.LBB24:
.LBB25:
	.loc 1 215 5
	.loc 1 216 5
	.loc 1 217 5
	.loc 1 218 5
	.loc 1 219 5
	.loc 1 221 5
	.loc 1 221 20 is_stmt 0
	lui	s5,%hi(.LANCHOR3)
	.loc 1 221 22
	call	wifi_mgmr_sta_enable
.LVL23:
	.loc 1 221 20
	addi	s0,s5,%lo(.LANCHOR3)
.LVL24:
	sw	a0,0(s0)
	.loc 1 222 5 is_stmt 1
	call	aos_now_ms
.LVL25:
	lw	a4,0(s0)
	mv	a2,a0
	addi	s1,sp,120
	lui	a0,%hi(.LC5)
	mv	a3,a1
	addi	a7,sp,188
	addi	a6,sp,84
	mv	a5,s1
	addi	a0,a0,%lo(.LC5)
	call	printf
.LVL26:
	.loc 1 230 5
	li	a2,66
	li	a1,0
	mv	a0,s1
	call	memset
.LVL27:
	.loc 1 231 5
	li	a2,33
	li	a1,0
	addi	a0,sp,84
	call	memset
.LVL28:
	.loc 1 232 5
	li	a2,66
	li	a1,0
	addi	a0,sp,188
	call	memset
.LVL29:
	.loc 1 233 5
	addi	s2,sp,52
	li	a2,32
	li	a1,0
	mv	a0,s2
	call	memset
.LVL30:
	.loc 1 234 5
	li	a2,6
	li	a1,0
	addi	a0,sp,32
	call	memset
.LVL31:
	.loc 1 235 5
	li	a1,0
	li	a2,10
	addi	a0,sp,40
	call	memset
.LVL32:
	.loc 1 237 5
	.loc 1 237 11 is_stmt 0
	lui	a0,%hi(.LC6)
	addi	a0,a0,%lo(.LC6)
	call	ef_get_env
.LVL33:
	mv	a1,a0
.LVL34:
	.loc 1 238 5 is_stmt 1
	addi	s5,s5,%lo(.LANCHOR3)
	.loc 1 238 8 is_stmt 0
	beq	a0,zero,.L30
	.loc 1 240 9 is_stmt 1
	li	a2,32
	addi	a0,sp,84
.LVL35:
	call	strncpy
.LVL36:
	.loc 1 251 5
	.loc 1 251 11 is_stmt 0
	lui	a0,%hi(.LC7)
	addi	a0,a0,%lo(.LC7)
	call	ef_get_env
.LVL37:
	mv	a1,a0
.LVL38:
	.loc 1 252 5 is_stmt 1
	.loc 1 252 8 is_stmt 0
	bne	a0,zero,.L31
.LVL39:
.L32:
	.loc 1 255 5 is_stmt 1
	.loc 1 255 11 is_stmt 0
	lui	s0,%hi(.LC14)
	addi	a0,s0,%lo(.LC14)
	call	ef_get_env
.LVL40:
	mv	a1,a0
.LVL41:
	.loc 1 256 5 is_stmt 1
	.loc 1 256 8 is_stmt 0
	beq	a0,zero,.L33
	.loc 1 257 9 is_stmt 1
	li	a2,65
	mv	a0,s1
.LVL42:
	call	strncpy
.LVL43:
.L33:
	.loc 1 259 5
	.loc 1 259 8 is_stmt 0
	lbu	a5,120(sp)
	bne	a5,zero,.L34
	.loc 1 260 9 is_stmt 1
	call	aos_now_ms
.LVL44:
	mv	a2,a0
	lui	a0,%hi(.LC15)
	mv	a3,a1
	addi	a0,a0,%lo(.LC15)
	call	printf
.LVL45:
	.loc 1 263 9
	lui	a0,%hi(.LC16)
	addi	a0,a0,%lo(.LC16)
	call	puts
.LVL46:
	.loc 1 266 9
	.loc 1 269 17 is_stmt 0
	addi	a0,sp,84
	call	strlen
.LVL47:
	.loc 1 266 9
	mv	a2,a0
	mv	a3,s1
	addi	a1,sp,84
	addi	a0,sp,188
	call	wifi_mgmr_psk_cal
.LVL48:
	.loc 1 272 9 is_stmt 1
	mv	a1,s1
	addi	a0,s0,%lo(.LC14)
	call	ef_set_env
.LVL49:
	.loc 1 273 9
	call	ef_save_env
.LVL50:
.L34:
	.loc 1 275 5
	.loc 1 275 11 is_stmt 0
	lui	a0,%hi(.LC17)
	addi	a0,a0,%lo(.LC17)
	call	ef_get_env
.LVL51:
	mv	a1,a0
.LVL52:
	.loc 1 276 5 is_stmt 1
	.loc 1 276 8 is_stmt 0
	bne	a0,zero,.L35
.LVL53:
.L37:
	.loc 1 219 14
	li	s3,0
	.loc 1 218 13
	li	s8,0
.LVL54:
.L36:
	.loc 1 281 5 is_stmt 1
	.loc 1 281 11 is_stmt 0
	lui	a0,%hi(.LC19)
	addi	a0,a0,%lo(.LC19)
	call	ef_get_env
.LVL55:
	mv	a1,a0
.LVL56:
	.loc 1 282 5 is_stmt 1
	.loc 1 282 8 is_stmt 0
	beq	a0,zero,.L40
	.loc 1 283 9 is_stmt 1
	li	a2,31
	mv	a0,s2
.LVL57:
	call	strncpy
.LVL58:
	.loc 1 284 9
	lui	a0,%hi(.LC20)
	mv	a1,s2
	addi	a0,a0,%lo(.LC20)
	call	printf
.LVL59:
	.loc 1 285 9
	.loc 1 285 38 is_stmt 0
	mv	a0,s2
	call	strlen
.LVL60:
.LBB26:
.LBB27:
	.loc 1 197 7
	andi	a5,a0,1
.LBE27:
.LBE26:
	.loc 1 285 38
	mv	s0,a0
.LVL61:
.LBB30:
.LBB28:
	.loc 1 193 4 is_stmt 1
	.loc 1 194 4
	.loc 1 195 4
	.loc 1 197 4
	.loc 1 197 6 is_stmt 0
	beq	a5,zero,.L41
	.loc 1 198 8 is_stmt 1
	.loc 1 198 25 is_stmt 0
	li	a5,2
	rem	a5,a0,a5
	.loc 1 198 15
	sub	s0,a0,a5
.LVL62:
.L41:
	.loc 1 201 4 is_stmt 1
	.loc 1 201 6 is_stmt 0
	beq	s0,zero,.L42
	mv	s7,s2
	.loc 1 205 9
	li	s6,0
.LVL63:
.L43:
	.loc 1 205 4
	bgt	s0,s6,.L44
.LVL64:
.L42:
.LBE28:
.LBE30:
	.loc 1 286 9 is_stmt 1
	lbu	a6,37(sp)
	lbu	a5,36(sp)
	lbu	a4,35(sp)
	lbu	a3,34(sp)
	lbu	a2,33(sp)
	lbu	a1,32(sp)
	lui	a0,%hi(.LC21)
	addi	a0,a0,%lo(.LC21)
	call	printf
.LVL65:
.L40:
	.loc 1 295 5
	call	aos_now_ms
.LVL66:
	sw	a0,24(sp)
	addi	a0,sp,84
	sw	a1,28(sp)
	call	strlen
.LVL67:
	sw	a0,20(sp)
	addi	a0,sp,188
	call	strlen
.LVL68:
	lw	a5,20(sp)
	lw	a2,24(sp)
	lw	a3,28(sp)
	mv	a7,a0
	lui	a0,%hi(.LC22)
	addi	a6,sp,188
	addi	a4,sp,84
	sw	s3,12(sp)
	sw	s8,8(sp)
	sw	s2,4(sp)
	sw	s1,0(sp)
	addi	a0,a0,%lo(.LC22)
	call	printf
.LVL69:
	.loc 1 315 5
	lw	a0,0(s5)
	mv	a6,s3
	mv	a5,s8
	addi	a4,sp,32
	mv	a3,s1
	addi	a2,sp,188
	addi	a1,sp,84
.LVL70:
.L78:
.LBE25:
.LBE24:
.LBB35:
.LBB36:
	.loc 1 323 5 is_stmt 0
	call	wifi_mgmr_sta_connect
.LVL71:
	j	.L13
.LVL72:
.L30:
.LBE36:
.LBE35:
.LBB38:
.LBB34:
	.loc 1 243 9 is_stmt 1
	lui	a0,%hi(.LC8)
.LVL73:
	addi	a0,a0,%lo(.LC8)
	call	puts
.LVL74:
	.loc 1 244 9
	lui	a0,%hi(.LC9)
	addi	a0,a0,%lo(.LC9)
	call	puts
.LVL75:
	.loc 1 245 9
	lui	a0,%hi(.LC10)
	addi	a0,a0,%lo(.LC10)
	call	puts
.LVL76:
	.loc 1 246 9
	lui	a0,%hi(.LC11)
	addi	a0,a0,%lo(.LC11)
	call	puts
.LVL77:
	.loc 1 247 9
	lui	a0,%hi(.LC12)
	addi	a0,a0,%lo(.LC12)
	call	puts
.LVL78:
	.loc 1 248 9
	lui	a0,%hi(.LC13)
	addi	a0,a0,%lo(.LC13)
	call	puts
.LVL79:
	.loc 1 249 9
	j	.L13
.LVL80:
.L31:
	.loc 1 253 9
	li	a2,65
	addi	a0,sp,188
.LVL81:
	call	strncpy
.LVL82:
	j	.L32
.LVL83:
.L35:
	.loc 1 277 9
	li	a2,9
	addi	a0,sp,40
.LVL84:
	call	strncpy
.LVL85:
	.loc 1 278 9
	lui	a0,%hi(.LC18)
	addi	a1,sp,40
	addi	a0,a0,%lo(.LC18)
	call	printf
.LVL86:
	.loc 1 279 9
.LBB31:
.LBB32:
	.loc 1 166 5
	.loc 1 167 5
	.loc 1 168 5
	.loc 1 169 5
	.loc 1 174 5
	.loc 1 174 9 is_stmt 0
	li	a1,124
	addi	a0,sp,40
.LVL87:
	call	strchr
.LVL88:
	.loc 1 174 7
	addi	s3,a0,1
.LVL89:
	.loc 1 175 5 is_stmt 1
	.loc 1 175 8 is_stmt 0
	beq	s3,zero,.L37
	.loc 1 178 5 is_stmt 1
	.loc 1 178 12 is_stmt 0
	lbu	a0,1(a0)
	.loc 1 166 22
	li	s6,1
	.loc 1 184 11
	li	s4,0
	.loc 1 178 12
	call	char_to_hex
.LVL90:
	mv	s8,a0
.LVL91:
	.loc 1 179 5 is_stmt 1
	.loc 1 181 5
	.loc 1 181 16 is_stmt 0
	addi	a0,sp,40
.LVL92:
	call	strlen
.LVL93:
	mv	s0,a0
	.loc 1 181 31
	mv	a0,s3
	call	strlen
.LVL94:
	.loc 1 181 29
	sub	s0,s0,a0
	.loc 1 181 41
	addi	s7,s0,-1
.LVL95:
	.loc 1 182 5 is_stmt 1
	.loc 1 183 5
	.loc 1 183 17 is_stmt 0
	addi	a5,sp,256
	add	a5,a5,s7
	sb	zero,-216(a5)
	.loc 1 184 5 is_stmt 1
.LVL96:
	addi	a5,sp,40
.LVL97:
	add	s0,a5,s0
	.loc 1 168 14 is_stmt 0
	li	s3,0
.LVL98:
	.loc 1 186 13
	li	s9,10
.LVL99:
.L38:
	addi	s0,s0,-1
	.loc 1 184 5
	ble	s7,s4,.L36
	.loc 1 185 8 is_stmt 1
	.loc 1 185 22 is_stmt 0
	lbu	a0,-1(s0)
	.loc 1 184 29
	addi	s4,s4,1
.LVL100:
	.loc 1 185 22
	call	char_to_hex
.LVL101:
	.loc 1 185 20
	mul	a0,a0,s6
	.loc 1 185 13
	add	s3,s3,a0
.LVL102:
	slli	s3,s3,16
	srli	s3,s3,16
.LVL103:
	.loc 1 186 8 is_stmt 1
	.loc 1 186 13 is_stmt 0
	mul	s6,s6,s9
.LVL104:
	j	.L38
.LVL105:
.L44:
.LBE32:
.LBE31:
.LBB33:
.LBB29:
	.loc 1 206 8 is_stmt 1
	.loc 1 206 11 is_stmt 0
	lbu	a0,0(s7)
	addi	s7,s7,2
	call	char_to_hex
.LVL106:
	mv	s4,a0
.LVL107:
	.loc 1 207 8 is_stmt 1
	.loc 1 207 11 is_stmt 0
	lbu	a0,-1(s7)
	.loc 1 208 20
	slli	s4,s4,4
.LVL108:
	.loc 1 207 11
	call	char_to_hex
.LVL109:
	.loc 1 208 8 is_stmt 1
	.loc 1 208 13 is_stmt 0
	srli	a5,s6,1
	.loc 1 208 16
	addi	a4,sp,256
	add	a5,a4,a5
	.loc 1 208 24
	add	s4,a0,s4
	.loc 1 208 16
	sb	s4,-224(a5)
	.loc 1 205 26
	addi	s6,s6,2
.LVL110:
	j	.L43
.LVL111:
.L21:
.LBE29:
.LBE33:
.LBE34:
.LBE38:
	.loc 1 346 13 is_stmt 1
	call	aos_now_ms
.LVL112:
	mv	a2,a0
	lui	a0,%hi(.LC23)
	mv	a3,a1
	addi	a0,a0,%lo(.LC23)
	call	printf
.LVL113:
	.loc 1 347 13
	call	wifi_mgmr_cli_scanlist
.LVL114:
	.loc 1 349 9
	j	.L13
.LVL115:
.L25:
	.loc 1 352 13
	call	aos_now_ms
.LVL116:
	mv	a2,a0
	lui	a0,%hi(.LC24)
	mv	a3,a1
	addi	a0,a0,%lo(.LC24)
.L79:
	.loc 1 426 13 is_stmt 0
	call	printf
.LVL117:
	.loc 1 428 9 is_stmt 1
	j	.L13
.LVL118:
.L22:
	.loc 1 357 13
	call	aos_now_ms
.LVL119:
	mv	a2,a0
	lui	a0,%hi(.LC25)
	mv	a3,a1
	addi	a0,a0,%lo(.LC25)
	j	.L79
.LVL120:
.L26:
	.loc 1 362 13
	call	aos_now_ms
.LVL121:
	mv	a2,a0
	lui	a0,%hi(.LC26)
	mv	a3,a1
	addi	a0,a0,%lo(.LC26)
	j	.L79
.LVL122:
.L24:
	.loc 1 367 13
	call	aos_now_ms
.LVL123:
	mv	a2,a0
	lui	a0,%hi(.LC27)
	mv	a3,a1
	addi	a0,a0,%lo(.LC27)
	j	.L79
.LVL124:
.L23:
	.loc 1 377 13
	call	aos_now_ms
.LVL125:
	mv	a2,a0
	lui	a0,%hi(.LC28)
	mv	a3,a1
	addi	a0,a0,%lo(.LC28)
	call	printf
.LVL126:
	.loc 1 378 13
	call	xPortGetFreeHeapSize
.LVL127:
	mv	a1,a0
	lui	a0,%hi(.LC29)
	addi	a0,a0,%lo(.LC29)
	call	printf
.LVL128:
	.loc 1 380 9
	j	.L13
.LVL129:
.L20:
	.loc 1 383 13
	call	aos_now_ms
.LVL130:
	.loc 1 385 26 is_stmt 0
	lw	a4,8(s0)
	.loc 1 383 13
	mv	a2,a0
	mv	a3,a1
	bne	a4,zero,.L45
	lui	a4,%hi(.LC2)
	addi	a4,a4,%lo(.LC2)
.L45:
	.loc 1 383 13 discriminator 4
	lui	a0,%hi(.LC30)
	addi	a0,a0,%lo(.LC30)
	call	printf
.LVL131:
	.loc 1 387 13 is_stmt 1 discriminator 4
	.loc 1 387 17 is_stmt 0 discriminator 4
	lui	a5,%hi(.LANCHOR4)
	lw	a0,%lo(.LANCHOR4)(a5)
	addi	s1,a5,%lo(.LANCHOR4)
.L82:
	.loc 1 410 16 discriminator 4
	beq	a0,zero,.L49
	.loc 1 411 17 is_stmt 1
	call	vPortFree
.LVL132:
	.loc 1 412 17
.L49:
	.loc 1 414 13
	.loc 1 414 22 is_stmt 0
	lw	a5,8(s0)
	sw	a5,0(s1)
	.loc 1 416 9 is_stmt 1
	j	.L13
.LVL133:
.L19:
	.loc 1 396 13
	call	aos_now_ms
.LVL134:
	.loc 1 398 26 is_stmt 0
	lw	a4,8(s0)
	.loc 1 396 13
	mv	a2,a0
	mv	a3,a1
	bne	a4,zero,.L47
	lui	a4,%hi(.LC2)
	addi	a4,a4,%lo(.LC2)
.L47:
	.loc 1 396 13 discriminator 4
	lui	a0,%hi(.LC31)
	addi	a0,a0,%lo(.LC31)
	call	printf
.LVL135:
	.loc 1 400 13 is_stmt 1 discriminator 4
	.loc 1 400 22 is_stmt 0 discriminator 4
	lw	a0,8(s0)
	.loc 1 400 16 discriminator 4
	beq	a0,zero,.L13
	.loc 1 401 17 is_stmt 1
	call	vPortFree
.LVL136:
	j	.L13
.LVL137:
.L18:
	.loc 1 407 13
	call	aos_now_ms
.LVL138:
	.loc 1 408 26 is_stmt 0
	lw	a4,8(s0)
	.loc 1 407 13
	mv	a2,a0
	mv	a3,a1
	bne	a4,zero,.L48
	lui	a4,%hi(.LC2)
	addi	a4,a4,%lo(.LC2)
.L48:
	.loc 1 407 13 discriminator 4
	lui	a0,%hi(.LC32)
	addi	a0,a0,%lo(.LC32)
	call	printf
.LVL139:
	.loc 1 410 13 is_stmt 1 discriminator 4
	.loc 1 410 17 is_stmt 0 discriminator 4
	lui	a5,%hi(.LANCHOR5)
	lw	a0,%lo(.LANCHOR5)(a5)
	addi	s1,a5,%lo(.LANCHOR5)
	j	.L82
.LVL140:
.L17:
	.loc 1 419 13 is_stmt 1
	call	aos_now_ms
.LVL141:
	mv	a2,a0
	lui	a0,%hi(.LC33)
	mv	a3,a1
	addi	a0,a0,%lo(.LC33)
	.loc 1 420 13 is_stmt 0
	lui	s0,%hi(.LANCHOR5)
.LVL142:
	lui	s1,%hi(.LANCHOR4)
	.loc 1 419 13
	call	printf
.LVL143:
	.loc 1 420 13 is_stmt 1
	addi	s0,s0,%lo(.LANCHOR5)
	addi	s1,s1,%lo(.LANCHOR4)
	lw	a2,0(s0)
	lw	a1,0(s1)
	lui	a0,%hi(.LC34)
	addi	a0,a0,%lo(.LC34)
	call	printf
.LVL144:
	.loc 1 421 13
	lw	a1,0(s1)
	lw	a2,0(s0)
	sw	a1,24(sp)
	sw	a2,20(sp)
.LVL145:
.LBB39:
.LBB37:
	.loc 1 320 5
	.loc 1 322 5
	.loc 1 322 22 is_stmt 0
	call	wifi_mgmr_sta_enable
.LVL146:
	.loc 1 323 5 is_stmt 1
	li	a6,0
	li	a5,0
	li	a4,0
	li	a3,0
	lw	a2,20(sp)
	lw	a1,24(sp)
	j	.L78
.LVL147:
.L15:
.LBE37:
.LBE39:
	.loc 1 426 13
	call	aos_now_ms
.LVL148:
	mv	a2,a0
	lui	a0,%hi(.LC35)
	mv	a3,a1
	addi	a0,a0,%lo(.LC35)
	j	.L79
.LVL149:
.L14:
	.loc 1 431 13
	call	aos_now_ms
.LVL150:
	mv	a2,a0
	lui	a0,%hi(.LC36)
	mv	a3,a1
	addi	a0,a0,%lo(.LC36)
	mv	a1,s1
	call	printf
.LVL151:
	.loc 1 435 1 is_stmt 0
	j	.L13
	.cfi_endproc
.LFE71:
	.size	event_cb_wifi_event, .-event_cb_wifi_event
	.section	.text.get_dts_addr.part.1,"ax",@progbits
	.align	1
	.type	get_dts_addr.part.1, @function
get_dts_addr.part.1:
.LFB85:
	.loc 1 467 12 is_stmt 1
	.cfi_startproc
.LVL152:
	.loc 1 479 8
	.loc 1 479 13
	.loc 1 479 15
.LBB40:
.LBB41:
	.file 2 "/home/melody/work/Doiting_BL/bl_iot_sdk/components/bl602/freertos_riscv_ram/portable/GCC/RISC-V/portmacro.h"
	.loc 2 151 5
	.loc 2 151 31 is_stmt 0
	lui	a5,%hi(TrapNetCounter)
.LBE41:
.LBE40:
	.loc 1 479 15
	lw	a5,%lo(TrapNetCounter)(a5)
	.loc 1 467 12
	addi	sp,sp,-16
	.cfi_def_cfa_offset 16
	sw	s0,8(sp)
	sw	ra,12(sp)
	.cfi_offset 8, -8
	.cfi_offset 1, -4
	.loc 1 467 12
	mv	s0,a0
	.loc 1 479 15
	beq	a5,zero,.L84
	.loc 1 479 91
	call	xTaskGetTickCountFromISR
.LVL153:
.L85:
	.loc 1 479 15
	mv	a1,a0
	lui	a3,%hi(.LC37)
	lui	a2,%hi(.LC38)
	lui	a0,%hi(.LC39)
	mv	a5,s0
	addi	a0,a0,%lo(.LC39)
	li	a4,479
	addi	a3,a3,%lo(.LC37)
	addi	a2,a2,%lo(.LC38)
	call	bl_printk
.LVL154:
	.loc 1 479 189 is_stmt 1
	.loc 1 480 8
	.loc 1 487 1 is_stmt 0
	lw	ra,12(sp)
	.cfi_remember_state
	.cfi_restore 1
	lw	s0,8(sp)
	.cfi_restore 8
.LVL155:
	li	a0,-1
	addi	sp,sp,16
	.cfi_def_cfa_offset 0
	jr	ra
.LVL156:
.L84:
	.cfi_restore_state
	.loc 1 479 120
	call	xTaskGetTickCount
.LVL157:
	j	.L85
	.cfi_endproc
.LFE85:
	.size	get_dts_addr.part.1, .-get_dts_addr.part.1
	.section	.text.aos_loop_proc,"ax",@progbits
	.align	1
	.type	aos_loop_proc, @function
aos_loop_proc:
.LFB76:
	.loc 1 497 1 is_stmt 1
	.cfi_startproc
.LVL158:
	.loc 1 498 5
	.loc 1 499 5
	.loc 1 500 5
	.loc 1 501 5
	.loc 1 504 5
	lui	a2,%hi(.LANCHOR6)
	lui	a0,%hi(proc_stack_looprt.11501)
.LVL159:
	.loc 1 497 1 is_stmt 0
	addi	sp,sp,-32
	.cfi_def_cfa_offset 32
	.loc 1 504 5
	addi	a2,a2,%lo(.LANCHOR6)
	li	a1,512
	addi	a0,a0,%lo(proc_stack_looprt.11501)
	.loc 1 497 1
	sw	ra,28(sp)
	sw	s0,24(sp)
	sw	s1,20(sp)
	sw	s2,16(sp)
	sw	s3,12(sp)
	.cfi_offset 1, -4
	.cfi_offset 8, -8
	.cfi_offset 9, -12
	.cfi_offset 18, -16
	.cfi_offset 19, -20
	.loc 1 504 5
	call	looprt_start
.LVL160:
	.loc 1 505 5 is_stmt 1
	call	loopset_led_hook_on_looprt
.LVL161:
	.loc 1 507 5
	call	easyflash_init
.LVL162:
	.loc 1 508 5
	call	vfs_init
.LVL163:
	.loc 1 509 5
	call	vfs_device_init
.LVL164:
	.loc 1 513 5
.LBB50:
.LBB51:
	.loc 1 469 5
	.loc 1 469 21 is_stmt 0
	call	hal_board_get_factory_addr
.LVL165:
	.loc 1 477 14
	lui	s2,%hi(.LC40)
	addi	a2,s2,%lo(.LC40)
	li	a1,0
	.loc 1 469 21
	mv	s1,a0
.LVL166:
	.loc 1 470 5 is_stmt 1
	.loc 1 471 5
	.loc 1 473 5
	.loc 1 477 5
	.loc 1 477 14 is_stmt 0
	call	fdt_subnode_offset
.LVL167:
	mv	s0,a0
.LVL168:
	.loc 1 478 5 is_stmt 1
	.loc 1 478 8 is_stmt 0
	bne	a0,zero,.L88
	addi	a0,s2,%lo(.LC40)
	call	get_dts_addr.part.1
.LVL169:
.LBE51:
.LBE50:
	.loc 1 499 23
	li	s2,0
	.loc 1 513 8
	bne	a0,zero,.L89
	.loc 1 499 14
	li	s1,0
.L88:
.LVL170:
	.loc 1 514 9 is_stmt 1
	mv	a1,s0
	mv	a0,s1
	mv	s2,s0
	call	vfs_uart_init
.LVL171:
	mv	s0,s1
.LVL172:
.L89:
	.loc 1 519 5
.LBB52:
.LBB53:
	.loc 1 469 5
	.loc 1 469 21 is_stmt 0
	call	hal_board_get_factory_addr
.LVL173:
	.loc 1 477 14
	lui	s3,%hi(.LC41)
	li	a1,0
	addi	a2,s3,%lo(.LC41)
	.loc 1 469 21
	mv	s1,a0
.LVL174:
	.loc 1 470 5 is_stmt 1
	.loc 1 471 5
	.loc 1 473 5
	.loc 1 477 5
	.loc 1 477 14 is_stmt 0
	call	fdt_subnode_offset
.LVL175:
	mv	a1,a0
.LVL176:
	.loc 1 478 5 is_stmt 1
	.loc 1 478 8 is_stmt 0
	bne	a0,zero,.L90
	addi	a0,s3,%lo(.LC41)
.LVL177:
	call	get_dts_addr.part.1
.LVL178:
.LBE53:
.LBE52:
	.loc 1 519 8
	bne	a0,zero,.L91
	mv	a1,s2
	mv	s1,s0
.LVL179:
.L90:
	.loc 1 520 9 is_stmt 1
	mv	a0,s1
	call	hal_gpio_init_from_dts
.LVL180:
.L91:
	.loc 1 523 5
.LBB54:
.LBB55:
	.loc 1 492 5
	call	romfs_register
.LVL181:
.LBE55:
.LBE54:
	.loc 1 524 5
	call	aos_loop_init
.LVL182:
	.loc 1 526 5
	.loc 1 526 18 is_stmt 0
	lui	a0,%hi(.LC42)
	li	a1,0
	addi	a0,a0,%lo(.LC42)
	call	aos_open
.LVL183:
	mv	s0,a0
.LVL184:
	.loc 1 527 5 is_stmt 1
	.loc 1 527 8 is_stmt 0
	blt	a0,zero,.L92
	.loc 1 528 9 is_stmt 1
	lui	a0,%hi(.LC43)
	addi	a0,a0,%lo(.LC43)
	call	printf
.LVL185:
	.loc 1 529 9
	li	a0,0
	call	aos_cli_init
.LVL186:
	.loc 1 530 9
	.loc 1 530 38 is_stmt 0
	call	aos_cli_event_cb_read_get
.LVL187:
	.loc 1 530 9
	li	a2,305418240
	mv	a1,a0
	addi	a2,a2,1656
	mv	a0,s0
	call	aos_poll_read_fd
.LVL188:
	.loc 1 531 9 is_stmt 1
.LBB56:
.LBB57:
	.loc 1 462 5
	call	easyflash_cli_init
.LVL189:
	.loc 1 463 5
	call	wifi_mgmr_cli_init
.LVL190:
	.loc 1 464 5
	call	http_client_cli_init
.LVL191:
.L92:
.LBE57:
.LBE56:
	.loc 1 534 5
	lui	a1,%hi(event_cb_wifi_event)
	li	a2,0
	addi	a1,a1,%lo(event_cb_wifi_event)
	li	a0,2
	call	aos_register_event_filter
.LVL192:
	.loc 1 536 5
	call	aos_loop_run
.LVL193:
	.loc 1 538 5
	lui	a0,%hi(.LC44)
	addi	a0,a0,%lo(.LC44)
	call	puts
.LVL194:
	.loc 1 539 5
	lui	a0,%hi(.LC45)
	addi	a0,a0,%lo(.LC45)
	call	puts
.LVL195:
	.loc 1 540 5
	lui	a0,%hi(.LC46)
	addi	a0,a0,%lo(.LC46)
	call	puts
.LVL196:
	.loc 1 541 5
	.loc 1 542 1 is_stmt 0
	lw	s0,24(sp)
	.cfi_restore 8
.LVL197:
	lw	ra,28(sp)
	.cfi_restore 1
	lw	s1,20(sp)
	.cfi_restore 9
	lw	s2,16(sp)
	.cfi_restore 18
	lw	s3,12(sp)
	.cfi_restore 19
	.loc 1 541 5
	li	a0,0
	.loc 1 542 1
	addi	sp,sp,32
	.cfi_def_cfa_offset 0
	.loc 1 541 5
	tail	vTaskDelete
.LVL198:
	.cfi_endproc
.LFE76:
	.size	aos_loop_proc, .-aos_loop_proc
	.section	.text.vApplicationStackOverflowHook,"ax",@progbits
	.align	1
	.globl	vApplicationStackOverflowHook
	.type	vApplicationStackOverflowHook, @function
vApplicationStackOverflowHook:
.LFB62:
	.loc 1 112 1 is_stmt 1
	.cfi_startproc
.LVL199:
	.loc 1 113 5
	lui	a0,%hi(.LC47)
.LVL200:
	.loc 1 112 1 is_stmt 0
	addi	sp,sp,-16
	.cfi_def_cfa_offset 16
	.loc 1 113 5
	addi	a0,a0,%lo(.LC47)
	.loc 1 112 1
	sw	ra,12(sp)
	.cfi_offset 1, -4
	.loc 1 113 5
	call	puts
.LVL201:
.L96:
	.loc 1 114 5 is_stmt 1 discriminator 1
	.loc 1 116 5 discriminator 1
	j	.L96
	.cfi_endproc
.LFE62:
	.size	vApplicationStackOverflowHook, .-vApplicationStackOverflowHook
	.section	.text.vApplicationMallocFailedHook,"ax",@progbits
	.align	1
	.globl	vApplicationMallocFailedHook
	.type	vApplicationMallocFailedHook, @function
vApplicationMallocFailedHook:
.LFB63:
	.loc 1 120 1
	.cfi_startproc
	.loc 1 121 5
	.loc 1 120 1 is_stmt 0
	addi	sp,sp,-16
	.cfi_def_cfa_offset 16
	sw	ra,12(sp)
	.cfi_offset 1, -4
	.loc 1 121 5
	call	xPortGetFreeHeapSize
.LVL202:
	mv	a1,a0
	lui	a0,%hi(.LC48)
	addi	a0,a0,%lo(.LC48)
	call	printf
.LVL203:
.L99:
	.loc 1 124 5 is_stmt 1 discriminator 1
	.loc 1 126 5 discriminator 1
	j	.L99
	.cfi_endproc
.LFE63:
	.size	vApplicationMallocFailedHook, .-vApplicationMallocFailedHook
	.section	.text.vApplicationIdleHook,"ax",@progbits
	.align	1
	.globl	vApplicationIdleHook
	.type	vApplicationIdleHook, @function
vApplicationIdleHook:
.LFB64:
	.loc 1 130 1
	.cfi_startproc
	.loc 1 131 5
 #APP
# 131 "/home/melody/work/Doiting_BL/bl_iot_sdk/customer_app/sdk_app_http_client_socket/sdk_app_http_client_socket/main.c" 1
	   wfi     
# 0 "" 2
	.loc 1 135 1 is_stmt 0
 #NO_APP
	ret
	.cfi_endproc
.LFE64:
	.size	vApplicationIdleHook, .-vApplicationIdleHook
	.section	.text.vApplicationGetIdleTaskMemory,"ax",@progbits
	.align	1
	.globl	vApplicationGetIdleTaskMemory
	.type	vApplicationGetIdleTaskMemory, @function
vApplicationGetIdleTaskMemory:
.LFB77:
	.loc 1 545 1 is_stmt 1
	.cfi_startproc
.LVL204:
	.loc 1 549 5
	.loc 1 550 5
	.loc 1 554 5
	.loc 1 554 27 is_stmt 0
	lui	a5,%hi(.LANCHOR7)
	addi	a5,a5,%lo(.LANCHOR7)
	sw	a5,0(a0)
	.loc 1 557 5 is_stmt 1
	.loc 1 557 29 is_stmt 0
	lui	a5,%hi(.LANCHOR8)
	addi	a5,a5,%lo(.LANCHOR8)
	sw	a5,0(a1)
	.loc 1 562 5 is_stmt 1
	.loc 1 562 27 is_stmt 0
	li	a5,96
	sw	a5,0(a2)
	.loc 1 563 1
	ret
	.cfi_endproc
.LFE77:
	.size	vApplicationGetIdleTaskMemory, .-vApplicationGetIdleTaskMemory
	.section	.text.vApplicationGetTimerTaskMemory,"ax",@progbits
	.align	1
	.globl	vApplicationGetTimerTaskMemory
	.type	vApplicationGetTimerTaskMemory, @function
vApplicationGetTimerTaskMemory:
.LFB78:
	.loc 1 569 1 is_stmt 1
	.cfi_startproc
.LVL205:
	.loc 1 573 5
	.loc 1 574 5
	.loc 1 578 5
	.loc 1 578 28 is_stmt 0
	lui	a5,%hi(.LANCHOR9)
	addi	a5,a5,%lo(.LANCHOR9)
	sw	a5,0(a0)
	.loc 1 581 5 is_stmt 1
	.loc 1 581 30 is_stmt 0
	lui	a5,%hi(.LANCHOR10)
	addi	a5,a5,%lo(.LANCHOR10)
	sw	a5,0(a1)
	.loc 1 586 5 is_stmt 1
	.loc 1 586 28 is_stmt 0
	li	a5,400
	sw	a5,0(a2)
	.loc 1 587 1
	ret
	.cfi_endproc
.LFE78:
	.size	vApplicationGetTimerTaskMemory, .-vApplicationGetTimerTaskMemory
	.section	.text.vAssertCalled,"ax",@progbits
	.align	1
	.globl	vAssertCalled
	.type	vAssertCalled, @function
vAssertCalled:
.LFB79:
	.loc 1 590 1 is_stmt 1
	.cfi_startproc
	.loc 1 591 5
	.loc 1 590 1 is_stmt 0
	addi	sp,sp,-16
	.cfi_def_cfa_offset 16
	.loc 1 591 23
	sw	zero,12(sp)
	.loc 1 593 5 is_stmt 1
 #APP
# 593 "/home/melody/work/Doiting_BL/bl_iot_sdk/customer_app/sdk_app_http_client_socket/sdk_app_http_client_socket/main.c" 1
	csrc mstatus, 8
# 0 "" 2
	.loc 1 594 5
	.loc 1 594 10 is_stmt 0
 #NO_APP
	li	a5,1
.L105:
	.loc 1 594 35
	lw	a4,12(sp)
	.loc 1 594 10
	bne	a4,a5,.L106
	.loc 1 597 1
	addi	sp,sp,16
	.cfi_remember_state
	.cfi_def_cfa_offset 0
	jr	ra
.L106:
	.cfi_restore_state
	.loc 1 595 9 is_stmt 1
 #APP
# 595 "/home/melody/work/Doiting_BL/bl_iot_sdk/customer_app/sdk_app_http_client_socket/sdk_app_http_client_socket/main.c" 1
	NOP
# 0 "" 2
 #NO_APP
	j	.L105
	.cfi_endproc
.LFE79:
	.size	vAssertCalled, .-vAssertCalled
	.section	.text.bfl_main,"ax",@progbits
	.align	1
	.globl	bfl_main
	.type	bfl_main, @function
bfl_main:
.LFB83:
	.loc 1 651 1
	.cfi_startproc
	.loc 1 652 5
	.loc 1 653 5
	.loc 1 654 5
	.loc 1 655 5
	.loc 1 658 5
	li	a5,1998848
	.loc 1 651 1 is_stmt 0
	addi	sp,sp,-64
	.cfi_def_cfa_offset 64
	.loc 1 658 5
	addi	a5,a5,1152
	li	a4,255
	li	a3,255
	li	a2,7
	li	a1,16
	li	a0,0
	.loc 1 651 1
	sw	ra,60(sp)
	sw	s0,56(sp)
	sw	s1,52(sp)
	.cfi_offset 1, -4
	.cfi_offset 8, -8
	.cfi_offset 9, -12
	.loc 1 658 5
	call	bl_uart_init
.LVL206:
	.loc 1 659 5 is_stmt 1
	lui	a0,%hi(.LC49)
	addi	a0,a0,%lo(.LC49)
	call	puts
.LVL207:
	.loc 1 662 5
.LBB62:
.LBB63:
	.loc 1 601 5
	.loc 1 602 5
	.loc 1 604 5
	lui	a0,%hi(.LC50)
	addi	a0,a0,%lo(.LC50)
	call	puts
.LVL208:
	.loc 1 607 5
	.loc 1 607 14 is_stmt 0
	addi	a0,sp,4
	call	bl_chip_banner
.LVL209:
	.loc 1 607 8
	bne	a0,zero,.L109
	.loc 1 608 9 is_stmt 1
	lw	a0,4(sp)
	call	puts
.LVL210:
.L109:
	.loc 1 610 5
	lui	s0,%hi(.LC51)
	addi	a0,s0,%lo(.LC51)
	call	puts
.LVL211:
	.loc 1 612 5
	addi	a0,s0,%lo(.LC51)
	call	puts
.LVL212:
	.loc 1 613 5
	lui	s1,%hi(.LC52)
	addi	a0,s1,%lo(.LC52)
	call	puts
.LVL213:
	.loc 1 614 5
	lui	a0,%hi(.LC53)
	addi	a0,a0,%lo(.LC53)
	call	puts
.LVL214:
	.loc 1 615 5
	addi	a0,sp,8
	call	bl_chip_info
.LVL215:
	.loc 1 616 5
	addi	a0,sp,8
	call	puts
.LVL216:
	.loc 1 617 5
	addi	a0,s0,%lo(.LC51)
	call	puts
.LVL217:
	.loc 1 619 5
	lui	a0,%hi(.LC54)
	addi	a0,a0,%lo(.LC54)
	call	puts
.LVL218:
	.loc 1 620 5
	lui	a0,%hi(.LC55)
	addi	a0,a0,%lo(.LC55)
	call	puts
.LVL219:
	.loc 1 621 5
	addi	a0,s0,%lo(.LC51)
	call	puts
.LVL220:
	.loc 1 622 5
	lui	a0,%hi(.LC56)
	addi	a0,a0,%lo(.LC56)
	call	puts
.LVL221:
	.loc 1 623 5
	lui	a0,%hi(.LC57)
	addi	a0,a0,%lo(.LC57)
	call	puts
.LVL222:
	.loc 1 624 5
	addi	a0,s0,%lo(.LC51)
	call	puts
.LVL223:
	.loc 1 625 5
	lui	a0,%hi(.LC58)
	addi	a0,a0,%lo(.LC58)
	call	puts
.LVL224:
	.loc 1 626 5
	lui	a0,%hi(.LC59)
	addi	a0,a0,%lo(.LC59)
	call	puts
.LVL225:
	.loc 1 627 5
	addi	a0,s0,%lo(.LC51)
	call	puts
.LVL226:
	.loc 1 628 5
	addi	a0,s1,%lo(.LC52)
	call	puts
.LVL227:
.LBE63:
.LBE62:
	.loc 1 664 5
	lui	a0,%hi(.LANCHOR11)
	addi	a0,a0,%lo(.LANCHOR11)
	call	vPortDefineHeapRegions
.LVL228:
	.loc 1 665 5
	lui	a4,%hi(_heap_wifi_start)
	lui	a3,%hi(_heap_wifi_size)
	lui	a2,%hi(_heap_start)
	lui	a1,%hi(_heap_size)
	lui	a0,%hi(.LC60)
	addi	a4,a4,%lo(_heap_wifi_start)
	addi	a3,a3,%lo(_heap_wifi_size)
	addi	a2,a2,%lo(_heap_start)
	addi	a1,a1,%lo(_heap_size)
	addi	a0,a0,%lo(.LC60)
	call	printf
.LVL229:
	.loc 1 670 5
.LBB64:
.LBB65:
	.loc 1 634 5
	call	blog_init
.LVL230:
	.loc 1 635 5
	call	bl_irq_init
.LVL231:
	.loc 1 636 5
	call	bl_sec_init
.LVL232:
	.loc 1 637 5
	call	bl_sec_test
.LVL233:
	.loc 1 638 5
	call	bl_dma_init
.LVL234:
	.loc 1 639 5
	call	hal_boot2_init
.LVL235:
	.loc 1 642 5
	li	a0,0
	call	hal_board_cfg
.LVL236:
.LBE65:
.LBE64:
	.loc 1 671 5
	.loc 1 648 1
	.loc 1 673 5
	lui	a0,%hi(.LC61)
	addi	a0,a0,%lo(.LC61)
	call	puts
.LVL237:
	.loc 1 674 5
	lui	a6,%hi(.LANCHOR12)
	lui	a5,%hi(proc_hellow_stack.11538)
	lui	a1,%hi(.LC62)
	lui	a0,%hi(proc_hellow_entry)
	addi	a6,a6,%lo(.LANCHOR12)
	addi	a5,a5,%lo(proc_hellow_stack.11538)
	li	a4,15
	li	a3,0
	li	a2,512
	addi	a1,a1,%lo(.LC62)
	addi	a0,a0,%lo(proc_hellow_entry)
	call	xTaskCreateStatic
.LVL238:
	.loc 1 675 5
	lui	a0,%hi(.LC63)
	addi	a0,a0,%lo(.LC63)
	call	puts
.LVL239:
	.loc 1 676 5
	lui	a6,%hi(.LANCHOR13)
	lui	a5,%hi(aos_loop_proc_stack.11536)
	lui	a1,%hi(.LC64)
	lui	a0,%hi(aos_loop_proc)
	addi	a6,a6,%lo(.LANCHOR13)
	addi	a5,a5,%lo(aos_loop_proc_stack.11536)
	li	a4,15
	li	a3,0
	li	a2,1024
	addi	a1,a1,%lo(.LC64)
	addi	a0,a0,%lo(aos_loop_proc)
	call	xTaskCreateStatic
.LVL240:
	.loc 1 677 5
	lui	a0,%hi(.LC65)
	addi	a0,a0,%lo(.LC65)
	call	puts
.LVL241:
	.loc 1 678 5
	li	a1,0
	li	a0,0
	call	tcpip_init
.LVL242:
	.loc 1 680 5
	lui	a0,%hi(.LC66)
	addi	a0,a0,%lo(.LC66)
	call	puts
.LVL243:
	.loc 1 681 5
	call	vTaskStartScheduler
.LVL244:
	.loc 1 682 1 is_stmt 0
	lw	ra,60(sp)
	.cfi_restore 1
	lw	s0,56(sp)
	.cfi_restore 8
	lw	s1,52(sp)
	.cfi_restore 9
	addi	sp,sp,64
	.cfi_def_cfa_offset 0
	jr	ra
	.cfi_endproc
.LFE83:
	.size	bfl_main, .-bfl_main
	.section	.bss.aos_loop_proc_stack.11536,"aw",@nobits
	.align	2
	.type	aos_loop_proc_stack.11536, @object
	.size	aos_loop_proc_stack.11536, 4096
aos_loop_proc_stack.11536:
	.zero	4096
	.section	.bss.aos_loop_proc_task.11537,"aw",@nobits
	.align	2
	.set	.LANCHOR13,. + 0
	.type	aos_loop_proc_task.11537, @object
	.size	aos_loop_proc_task.11537, 96
aos_loop_proc_task.11537:
	.zero	96
	.section	.bss.proc_hellow_stack.11538,"aw",@nobits
	.align	2
	.type	proc_hellow_stack.11538, @object
	.size	proc_hellow_stack.11538, 2048
proc_hellow_stack.11538:
	.zero	2048
	.section	.bss.proc_hellow_task.11539,"aw",@nobits
	.align	2
	.set	.LANCHOR12,. + 0
	.type	proc_hellow_task.11539, @object
	.size	proc_hellow_task.11539, 96
proc_hellow_task.11539:
	.zero	96
	.section	.bss.proc_stack_looprt.11501,"aw",@nobits
	.align	2
	.type	proc_stack_looprt.11501, @object
	.size	proc_stack_looprt.11501, 2048
proc_stack_looprt.11501:
	.zero	2048
	.section	.bss.proc_task_looprt.11502,"aw",@nobits
	.align	2
	.set	.LANCHOR6,. + 0
	.type	proc_task_looprt.11502, @object
	.size	proc_task_looprt.11502, 96
proc_task_looprt.11502:
	.zero	96
	.section	.bss.uxIdleTaskStack.11509,"aw",@nobits
	.align	2
	.set	.LANCHOR8,. + 0
	.type	uxIdleTaskStack.11509, @object
	.size	uxIdleTaskStack.11509, 384
uxIdleTaskStack.11509:
	.zero	384
	.section	.bss.uxTimerTaskStack.11516,"aw",@nobits
	.align	2
	.set	.LANCHOR10,. + 0
	.type	uxTimerTaskStack.11516, @object
	.size	uxTimerTaskStack.11516, 1600
uxTimerTaskStack.11516:
	.zero	1600
	.section	.bss.xIdleTaskTCB.11508,"aw",@nobits
	.align	2
	.set	.LANCHOR7,. + 0
	.type	xIdleTaskTCB.11508, @object
	.size	xIdleTaskTCB.11508, 96
xIdleTaskTCB.11508:
	.zero	96
	.section	.bss.xTimerTaskTCB.11515,"aw",@nobits
	.align	2
	.set	.LANCHOR9,. + 0
	.type	xTimerTaskTCB.11515, @object
	.size	xTimerTaskTCB.11515, 96
xTimerTaskTCB.11515:
	.zero	96
	.section	.data.xHeapRegions,"aw"
	.align	2
	.set	.LANCHOR11,. + 0
	.type	xHeapRegions, @object
	.size	xHeapRegions, 32
xHeapRegions:
	.word	_heap_start
	.word	_heap_size
	.word	_heap_wifi_start
	.word	_heap_wifi_size
	.word	0
	.word	0
	.word	0
	.word	0
	.section	.rodata.__func__.11403,"a"
	.align	2
	.set	.LANCHOR1,. + 0
	.type	__func__.11403, @object
	.size	__func__.11403, 18
__func__.11403:
	.string	"proc_hellow_entry"
	.section	.rodata.aos_loop_proc.str1.4,"aMS",@progbits,1
	.align	2
.LC40:
	.string	"uart"
	.zero	3
.LC41:
	.string	"gpio"
	.zero	3
.LC42:
	.string	"/dev/ttyS0"
	.zero	1
.LC43:
	.string	"Init CLI with event Driven\r\n"
	.zero	3
.LC44:
	.string	"------------------------------------------\r\n"
	.zero	3
.LC45:
	.string	"+++++++++Critical Exit From Loop++++++++++\r\n"
	.zero	3
.LC46:
	.string	"******************************************\r\n"
	.section	.rodata.bfl_main.str1.4,"aMS",@progbits,1
	.align	2
.LC49:
	.string	"Starting bl602 now....\r\n"
	.zero	3
.LC50:
	.string	"Booting BL602 Chip...\r\n"
.LC51:
	.string	"\r\n"
	.zero	1
.LC52:
	.string	"------------------------------------------------------------\r\n"
	.zero	1
.LC53:
	.string	"RISC-V Core Feature:"
	.zero	3
.LC54:
	.string	"Build Version: "
.LC55:
	.string	"release_bl_iot_sdk_1.6.1-dirty"
	.zero	1
.LC56:
	.string	"Build Date: "
	.zero	3
.LC57:
	.string	"Sep  5 2022"
.LC58:
	.string	"Build Time: "
	.zero	3
.LC59:
	.string	"17:16:29"
	.zero	3
.LC60:
	.string	"Heap %u@%p, %u@%p\r\n"
.LC61:
	.string	"[OS] Starting proc_hellow_entry task...\r\n"
	.zero	2
.LC62:
	.string	"hellow"
	.zero	1
.LC63:
	.string	"[OS] Starting aos_loop_proc task...\r\n"
	.zero	2
.LC64:
	.string	"event_loop"
	.zero	1
.LC65:
	.string	"[OS] Starting TCP/IP Stack...\r\n"
.LC66:
	.string	"[OS] Starting OS Scheduler...\r\n"
	.section	.rodata.cmd_stack_wifi.str1.4,"aMS",@progbits,1
	.align	2
.LC0:
	.string	"Wi-Fi Stack Started already!!!\r\n"
	.section	.rodata.event_cb_wifi_event.str1.4,"aMS",@progbits,1
	.align	2
.LC2:
	.string	"UNKNOWN"
.LC3:
	.string	"[APP] [EVT] INIT DONE %lld\r\n"
	.zero	3
.LC4:
	.string	"[APP] [EVT] MGMR DONE %lld\r\n"
	.zero	3
.LC5:
	.string	"[APP] [WIFI] [T] %lld\r\n[APP]   Get STA %p from Wi-Fi Mgmr, pmk ptr %p, ssid ptr %p, password %p\r\n"
	.zero	2
.LC6:
	.string	"conf_ap_ssid"
	.zero	3
.LC7:
	.string	"conf_ap_psk"
.LC8:
	.string	"[APP]    Empty Config\r\n"
.LC9:
	.string	"[APP]    Try to set the following ENV with psm_set command, then reboot\r\n"
	.zero	2
.LC10:
	.string	"[APP]    NOTE: conf_ap_pmk MUST be psm_unset when conf is changed\r\n"
.LC11:
	.string	"[APP]    env: conf_ap_ssid\r\n"
	.zero	3
.LC12:
	.string	"[APP]    env: conf_ap_psk\r\n"
.LC13:
	.string	"[APP]    env(optinal): conf_ap_pmk\r\n"
	.zero	3
.LC14:
	.string	"conf_ap_pmk"
.LC15:
	.string	"[APP] [WIFI] [T] %lld\r\n"
.LC16:
	.string	"[APP]    Re-cal pmk\r\n"
	.zero	2
.LC17:
	.string	"conf_ap_channel"
.LC18:
	.string	"connect wifi channel = %s\r\n"
.LC19:
	.string	"conf_ap_bssid"
	.zero	2
.LC20:
	.string	"connect wifi bssid = %s\r\n"
	.zero	2
.LC21:
	.string	"mac = %02X:%02X:%02X:%02X:%02X:%02X\r\n"
	.zero	2
.LC22:
	.string	"[APP] [WIFI] [T] %lld\r\n[APP]    SSID %s\r\n[APP]    SSID len %d\r\n[APP]    password %s\r\n[APP]    password len %d\r\n[APP]    pmk %s\r\n[APP]    bssid %s\r\n[APP]    channel band %d\r\n[APP]    channel freq %d\r\n"
.LC23:
	.string	"[APP] [EVT] SCAN Done %lld\r\n"
	.zero	3
.LC24:
	.string	"[APP] [EVT] disconnect %lld\r\n"
	.zero	2
.LC25:
	.string	"[APP] [EVT] Connecting %lld\r\n"
	.zero	2
.LC26:
	.string	"[APP] [EVT] Reconnect %lld\r\n"
	.zero	3
.LC27:
	.string	"[APP] [EVT] connected %lld\r\n"
	.zero	3
.LC28:
	.string	"[APP] [EVT] GOT IP %lld\r\n"
	.zero	2
.LC29:
	.string	"[SYS] Memory left is %d Bytes\r\n"
.LC30:
	.string	"[APP] [EVT] [PROV] [SSID] %lld: %s\r\n"
	.zero	3
.LC31:
	.string	"[APP] [EVT] [PROV] [BSSID] %lld: %s\r\n"
	.zero	2
.LC32:
	.string	"[APP] [EVT] [PROV] [PASSWD] %lld: %s\r\n"
	.zero	1
.LC33:
	.string	"[APP] [EVT] [PROV] [CONNECT] %lld\r\n"
.LC34:
	.string	"connecting to %s:%s...\r\n"
	.zero	3
.LC35:
	.string	"[APP] [EVT] [PROV] [DISCONNECT] %lld\r\n"
	.zero	1
.LC36:
	.string	"[APP] [EVT] Unknown code %u, %lld\r\n"
	.section	.rodata.get_dts_addr.part.1.str1.4,"aMS",@progbits,1
	.align	2
.LC37:
	.string	"main.c"
	.zero	1
.LC38:
	.string	"\033[31mERROR \033[0m"
.LC39:
	.string	"[%10u][%s: %s:%4d] %s NULL.\r\n"
	.section	.rodata.proc_hellow_entry.str1.4,"aMS",@progbits,1
	.align	2
.LC1:
	.string	"%s: RISC-V rv32imafc\r\n"
	.section	.rodata.str1.4,"aMS",@progbits,1
	.align	2
.LC67:
	.string	"stack_wifi"
	.zero	1
.LC68:
	.string	"Wi-Fi Stack"
	.section	.rodata.vApplicationMallocFailedHook.str1.4,"aMS",@progbits,1
	.align	2
.LC48:
	.string	"Memory Allocate Failed. Current left size is %d bytes\r\n"
	.section	.rodata.vApplicationStackOverflowHook.str1.4,"aMS",@progbits,1
	.align	2
.LC47:
	.string	"Stack Overflow checked\r\n"
	.section	.sbss.password.11457,"aw",@nobits
	.align	2
	.set	.LANCHOR5,. + 0
	.type	password.11457, @object
	.size	password.11457, 4
password.11457:
	.zero	4
	.section	.sbss.ssid.11456,"aw",@nobits
	.align	2
	.set	.LANCHOR4,. + 0
	.type	ssid.11456, @object
	.size	ssid.11456, 4
ssid.11456:
	.zero	4
	.section	.sbss.stack_wifi_init.11480,"aw",@nobits
	.set	.LANCHOR0,. + 0
	.type	stack_wifi_init.11480, @object
	.size	stack_wifi_init.11480, 1
stack_wifi_init.11480:
	.zero	1
	.section	.sbss.wifi_interface,"aw",@nobits
	.align	2
	.set	.LANCHOR3,. + 0
	.type	wifi_interface, @object
	.size	wifi_interface, 4
wifi_interface:
	.zero	4
	.section	.sdata.conf,"aw"
	.align	2
	.set	.LANCHOR2,. + 0
	.type	conf, @object
	.size	conf, 8
conf:
	.string	"CN"
	.zero	5
	.section	.static_cli_cmds,"a"
	.align	2
	.type	cmds_user, @object
	.size	cmds_user, 12
cmds_user:
	.word	.LC67
	.word	.LC68
	.word	cmd_stack_wifi
	.text
.Letext0:
	.file 3 "/home/melody/work/Doiting_BL/bl_iot_sdk/toolchain/riscv/Linux/lib/gcc/riscv64-unknown-elf/8.3.0/include/stddef.h"
	.file 4 "/home/melody/work/Doiting_BL/bl_iot_sdk/toolchain/riscv/Linux/lib/gcc/riscv64-unknown-elf/8.3.0/include/stdint-gcc.h"
	.file 5 "/home/melody/work/Doiting_BL/bl_iot_sdk/components/bl602/freertos_riscv_ram/config/portable.h"
	.file 6 "/home/melody/work/Doiting_BL/bl_iot_sdk/components/bl602/freertos_riscv_ram/config/FreeRTOS.h"
	.file 7 "/home/melody/work/Doiting_BL/bl_iot_sdk/components/bl602/freertos_riscv_ram/config/task.h"
	.file 8 "/home/melody/work/Doiting_BL/bl_iot_sdk/toolchain/riscv/Linux/riscv64-unknown-elf/include/sys/_types.h"
	.file 9 "/home/melody/work/Doiting_BL/bl_iot_sdk/toolchain/riscv/Linux/riscv64-unknown-elf/include/sys/reent.h"
	.file 10 "/home/melody/work/Doiting_BL/bl_iot_sdk/toolchain/riscv/Linux/riscv64-unknown-elf/include/sys/lock.h"
	.file 11 "/home/melody/work/Doiting_BL/bl_iot_sdk/toolchain/riscv/Linux/riscv64-unknown-elf/include/time.h"
	.file 12 "/home/melody/work/Doiting_BL/bl_iot_sdk/components/stage/yloop/include/aos/yloop.h"
	.file 13 "/home/melody/work/Doiting_BL/bl_iot_sdk/components/stage/cli/cli/include/cli.h"
	.file 14 "/home/melody/work/Doiting_BL/bl_iot_sdk/components/network/lwip/lwip-port/arch/cc.h"
	.file 15 "/home/melody/work/Doiting_BL/bl_iot_sdk/toolchain/riscv/Linux/riscv64-unknown-elf/include/stdlib.h"
	.file 16 "/home/melody/work/Doiting_BL/bl_iot_sdk/toolchain/riscv/Linux/riscv64-unknown-elf/include/ctype.h"
	.file 17 "/home/melody/work/Doiting_BL/bl_iot_sdk/components/network/lwip/src/include/lwip/err.h"
	.file 18 "/home/melody/work/Doiting_BL/bl_iot_sdk/components/bl602/freertos_riscv_ram/config/queue.h"
	.file 19 "/home/melody/work/Doiting_BL/bl_iot_sdk/components/bl602/freertos_riscv_ram/config/semphr.h"
	.file 20 "/home/melody/work/Doiting_BL/bl_iot_sdk/components/network/lwip/lwip-port/arch/sys_arch.h"
	.file 21 "/home/melody/work/Doiting_BL/bl_iot_sdk/components/network/lwip/src/include/lwip/timeouts.h"
	.file 22 "/home/melody/work/Doiting_BL/bl_iot_sdk/components/network/lwip/src/include/lwip/ip4_addr.h"
	.file 23 "/home/melody/work/Doiting_BL/bl_iot_sdk/components/network/lwip/src/include/lwip/ip_addr.h"
	.file 24 "/home/melody/work/Doiting_BL/bl_iot_sdk/components/network/lwip/src/include/lwip/pbuf.h"
	.file 25 "/home/melody/work/Doiting_BL/bl_iot_sdk/components/network/lwip/src/include/lwip/mem.h"
	.file 26 "/home/melody/work/Doiting_BL/bl_iot_sdk/components/network/lwip/src/include/lwip/priv/memp_priv.h"
	.file 27 "/home/melody/work/Doiting_BL/bl_iot_sdk/components/network/lwip/src/include/lwip/stats.h"
	.file 28 "/home/melody/work/Doiting_BL/bl_iot_sdk/components/network/lwip/src/include/lwip/memp.h"
	.file 29 "/home/melody/work/Doiting_BL/bl_iot_sdk/components/network/lwip/src/include/lwip/netif.h"
	.file 30 "/home/melody/work/Doiting_BL/bl_iot_sdk/components/network/lwip/src/include/lwip/tcpip.h"
	.file 31 "/home/melody/work/Doiting_BL/bl_iot_sdk/components/network/lwip/src/include/lwip/inet.h"
	.file 32 "/home/melody/work/Doiting_BL/bl_iot_sdk/components/network/lwip/src/include/lwip/errno.h"
	.file 33 "/home/melody/work/Doiting_BL/bl_iot_sdk/components/network/lwip/src/include/lwip/netdb.h"
	.file 34 "/home/melody/work/Doiting_BL/bl_iot_sdk/components/network/lwip/src/include/lwip/prot/ip4.h"
	.file 35 "/home/melody/work/Doiting_BL/bl_iot_sdk/components/network/lwip/src/include/lwip/ip.h"
	.file 36 "/home/melody/work/Doiting_BL/bl_iot_sdk/components/bl602/bl602_std/bl602_std/RISCV/Device/Bouffalo/BL602/Startup/system_bl602.h"
	.file 37 "/home/melody/work/Doiting_BL/bl_iot_sdk/components/bl602/bl602_std/bl602_std/StdDriver/Inc/bl602_common.h"
	.file 38 "/home/melody/work/Doiting_BL/bl_iot_sdk/components/hal_drv/bl602_hal/bl_sec.h"
	.file 39 "/home/melody/work/Doiting_BL/bl_iot_sdk/components/utils/include/utils_list.h"
	.file 40 "/home/melody/work/Doiting_BL/bl_iot_sdk/components/sys/bloop/bloop/include/bloop.h"
	.file 41 "/home/melody/work/Doiting_BL/bl_iot_sdk/components/bl602/bl602_wifidrv/bl60x_wifi_driver/include/wifi_mgmr_ext.h"
	.file 42 "/home/melody/work/Doiting_BL/bl_iot_sdk/toolchain/riscv/Linux/riscv64-unknown-elf/include/stdio.h"
	.file 43 "/home/melody/work/Doiting_BL/bl_iot_sdk/components/hal_drv/bl602_hal/bl_chip.h"
	.file 44 "/home/melody/work/Doiting_BL/bl_iot_sdk/components/stage/blog/blog.h"
	.file 45 "/home/melody/work/Doiting_BL/bl_iot_sdk/components/hal_drv/bl602_hal/bl_irq.h"
	.file 46 "/home/melody/work/Doiting_BL/bl_iot_sdk/components/hal_drv/bl602_hal/bl_dma.h"
	.file 47 "/home/melody/work/Doiting_BL/bl_iot_sdk/components/hal_drv/bl602_hal/hal_boot2.h"
	.file 48 "/home/melody/work/Doiting_BL/bl_iot_sdk/components/hal_drv/bl602_hal/hal_board.h"
	.file 49 "/home/melody/work/Doiting_BL/bl_iot_sdk/components/hal_drv/bl602_hal/bl_uart.h"
	.file 50 "/home/melody/work/Doiting_BL/bl_iot_sdk/components/stage/blfdt/inc/libfdt.h"
	.file 51 "/home/melody/work/Doiting_BL/bl_iot_sdk/components/fs/romfs/include/bl_romfs.h"
	.file 52 "/home/melody/work/Doiting_BL/bl_iot_sdk/components/stage/easyflash4/inc/easyflash.h"
	.file 53 "/home/melody/work/Doiting_BL/bl_iot_sdk/customer_app/sdk_app_http_client_socket/sdk_app_http_client_socket/demo.h"
	.file 54 "/home/melody/work/Doiting_BL/bl_iot_sdk/components/sys/bloop/looprt/include/looprt.h"
	.file 55 "/home/melody/work/Doiting_BL/bl_iot_sdk/components/sys/bloop/loopset/include/loopset.h"
	.file 56 "/home/melody/work/Doiting_BL/bl_iot_sdk/components/fs/vfs/include/vfs.h"
	.file 57 "/home/melody/work/Doiting_BL/bl_iot_sdk/components/stage/yloop/include/event_device.h"
	.file 58 "/home/melody/work/Doiting_BL/bl_iot_sdk/components/hal_drv/bl602_hal/hal_uart.h"
	.file 59 "/home/melody/work/Doiting_BL/bl_iot_sdk/components/hal_drv/bl602_hal/hal_gpio.h"
	.file 60 "/home/melody/work/Doiting_BL/bl_iot_sdk/components/hal_drv/bl602_hal/hal_wifi.h"
	.file 61 "/home/melody/work/Doiting_BL/bl_iot_sdk/toolchain/riscv/Linux/riscv64-unknown-elf/include/string.h"
	.file 62 "/home/melody/work/Doiting_BL/bl_iot_sdk/components/stage/yloop/include/aos/kernel.h"
	.file 63 "/home/melody/work/Doiting_BL/bl_iot_sdk/components/bl602/bl602_std/bl602_std/Common/platform_print/bflb_platform.h"
	.file 64 "/home/melody/work/Doiting_BL/bl_iot_sdk/components/utils/include/utils_log.h"