	.file	"buf.c"
	.option nopic
	.attribute arch, "rv32i2p0_m2p0_f2p0_c2p0"
	.attribute unaligned_access, 0
	.attribute stack_align, 16
	.text
.Ltext0:
	.cfi_sections	.debug_frame
	.section	.text.fixed_data_unref,"ax",@progbits
	.align	1
	.type	fixed_data_unref, @function
fixed_data_unref:
.LFB85:
	.file 1 "/home/melody/work/Doiting_BL/bl_iot_sdk/components/network/ble/blestack/src/common/buf.c"
	.loc 1 186 1
	.cfi_startproc
.LVL0:
	.loc 1 188 1
	ret
	.cfi_endproc
.LFE85:
	.size	fixed_data_unref, .-fixed_data_unref
	.section	.text.net_buf_pool_get,"ax",@progbits
	.align	1
	.globl	net_buf_pool_get
	.type	net_buf_pool_get, @function
net_buf_pool_get:
.LFB79:
	.loc 1 65 1
	.cfi_startproc
.LVL1:
	.loc 1 69 2
	.loc 1 69 9 is_stmt 0
	li	a5,28
	mul	a0,a0,a5
.LVL2:
	.loc 1 71 1
	lui	a5,%hi(_net_buf_pool_list)
	addi	a5,a5,%lo(_net_buf_pool_list)
	add	a0,a5,a0
	ret
	.cfi_endproc
.LFE79:
	.size	net_buf_pool_get, .-net_buf_pool_get
	.section	.text.net_buf_id,"ax",@progbits
	.align	1
	.globl	net_buf_id
	.type	net_buf_id, @function
net_buf_id:
.LFB81:
	.loc 1 91 1 is_stmt 1
	.cfi_startproc
.LVL3:
	.loc 1 92 2
	.loc 1 69 2
	.loc 1 94 2
	.loc 1 92 30 is_stmt 0
	lbu	a4,6(a0)
	.loc 1 94 19
	li	a3,28
	lui	a5,%hi(_net_buf_pool_list)
	mul	a4,a4,a3
	addi	a5,a5,%lo(_net_buf_pool_list)
	add	a5,a5,a4
	.loc 1 94 13
	lw	a5,24(a5)
	sub	a0,a0,a5
.LVL4:
	.loc 1 95 1
	srai	a0,a0,5
	ret
	.cfi_endproc
.LFE81:
	.size	net_buf_id, .-net_buf_id
	.section	.text.fixed_data_alloc,"ax",@progbits
	.align	1
	.type	fixed_data_alloc, @function
fixed_data_alloc:
.LFB84:
	.loc 1 176 1 is_stmt 1
	.cfi_startproc
.LVL5:
	.loc 1 177 2
	.loc 1 69 2
	.loc 1 178 2
	.loc 1 176 1 is_stmt 0
	addi	sp,sp,-16
	.cfi_def_cfa_offset 16
	sw	ra,12(sp)
.LVL6:
	sw	s0,8(sp)
	.cfi_offset 1, -4
	.cfi_offset 8, -8
	.loc 1 177 30
	lbu	a4,6(a0)
	.loc 1 178 47
	li	a3,28
	lui	a5,%hi(_net_buf_pool_list)
	mul	a4,a4,a3
	addi	a5,a5,%lo(_net_buf_pool_list)
	add	a5,a5,a4
	.loc 1 178 35
	lw	a5,20(a5)
	lw	s0,4(a5)
.LVL7:
	.loc 1 180 2 is_stmt 1
	.loc 1 180 63 is_stmt 0
	lw	a5,0(a1)
	lw	a4,0(s0)
	bleu	a5,a4,.L5
	mv	a5,a4
.L5:
	.loc 1 180 8
	sw	a5,0(a1)
	.loc 1 182 2 is_stmt 1
	.loc 1 182 47 is_stmt 0
	call	net_buf_id
.LVL8:
	.loc 1 182 45
	lw	a5,0(s0)
	.loc 1 183 1
	lw	ra,12(sp)
	.cfi_restore 1
	.loc 1 182 45
	mul	a0,a0,a5
	.loc 1 182 26
	lw	a5,4(s0)
	.loc 1 183 1
	lw	s0,8(sp)
	.cfi_restore 8
.LVL9:
	addi	sp,sp,16
	.cfi_def_cfa_offset 0
	add	a0,a5,a0
	jr	ra
	.cfi_endproc
.LFE84:
	.size	fixed_data_alloc, .-fixed_data_alloc
	.section	.text.net_buf_reset,"ax",@progbits
	.align	1
	.globl	net_buf_reset
	.type	net_buf_reset, @function
net_buf_reset:
.LFB83:
	.loc 1 110 1 is_stmt 1
	.cfi_startproc
.LVL10:
	.loc 1 111 2
	.loc 1 112 2
	.loc 1 114 2
.LBB98:
.LBB99:
	.file 2 "/home/melody/work/Doiting_BL/bl_iot_sdk/components/network/ble/blestack/src/common/include/net/buf.h"
	.loc 2 149 2
	.loc 2 150 12 is_stmt 0
	lw	a5,16(a0)
	.loc 2 149 11
	sh	zero,12(a0)
	.loc 2 150 2 is_stmt 1
	.loc 2 150 12 is_stmt 0
	sw	a5,8(a0)
.LVL11:
.LBE99:
.LBE98:
	.loc 1 115 1
	ret
	.cfi_endproc
.LFE83:
	.size	net_buf_reset, .-net_buf_reset
	.section	.text.net_buf_alloc_len,"ax",@progbits
	.align	1
	.globl	net_buf_alloc_len
	.type	net_buf_alloc_len, @function
net_buf_alloc_len:
.LFB89:
	.loc 1 268 1 is_stmt 1
	.cfi_startproc
.LVL12:
	.loc 1 269 2
	.loc 1 268 1 is_stmt 0
	addi	sp,sp,-48
	.cfi_def_cfa_offset 48
	sw	ra,44(sp)
	sw	s1,36(sp)
	sw	s2,32(sp)
	sw	s3,28(sp)
	.cfi_offset 1, -4
	.cfi_offset 9, -12
	.cfi_offset 18, -16
	.cfi_offset 19, -20
	mv	s1,a0
	sw	a1,12(sp)
	mv	s2,a2
	sw	s0,40(sp)
	sw	s4,24(sp)
	sw	s5,20(sp)
	.cfi_offset 8, -8
	.cfi_offset 20, -24
	.cfi_offset 21, -28
	.loc 1 269 22
	call	k_uptime_get_32
.LVL13:
	mv	s3,a0
.LVL14:
	.loc 1 270 2 is_stmt 1
	.loc 1 271 2
	.loc 1 273 2
	.loc 1 276 21
	.loc 1 281 2
	.loc 1 281 8 is_stmt 0
	call	irq_lock
.LVL15:
	.loc 1 286 2 is_stmt 1
	.loc 1 286 10 is_stmt 0
	lhu	a5,14(s1)
	.loc 1 286 5
	beq	a5,zero,.L9
.LBB115:
	.loc 1 293 6
	lhu	a4,12(s1)
	mv	s5,a0
	.loc 1 287 3 is_stmt 1
	.loc 1 293 3
	.loc 1 293 6 is_stmt 0
	bleu	a4,a5,.L10
	.loc 1 294 4 is_stmt 1
	.loc 1 294 10 is_stmt 0
	li	a1,0
	mv	a0,s1
.LVL16:
	call	k_queue_get
.LVL17:
	mv	s0,a0
.LVL18:
	.loc 1 295 4 is_stmt 1
	.loc 1 295 7 is_stmt 0
	beq	a0,zero,.L10
	.loc 1 296 5 is_stmt 1
	mv	a0,s5
	call	irq_unlock
.LVL19:
	.loc 1 297 5
.L11:
.LBE115:
	.loc 1 345 2
	.loc 1 347 2
	.loc 1 347 5 is_stmt 0
	lw	a5,12(sp)
	beq	a5,zero,.L13
	.loc 1 348 3 is_stmt 1
	.loc 1 348 20 is_stmt 0
	addi	a5,s2,1
	.loc 1 348 6
	li	a4,1
	bleu	a5,a4,.L14
.LBB120:
	.loc 1 349 4 is_stmt 1
	.loc 1 349 17 is_stmt 0
	call	k_uptime_get_32
.LVL20:
	.loc 1 351 4 is_stmt 1
	.loc 1 349 10 is_stmt 0
	sub	a0,a0,s3
.LVL21:
	.loc 1 351 49
	bleu	a0,s2,.L15
	mv	a0,s2
.LVL22:
.L15:
	.loc 1 351 12
	sub	s2,s2,a0
.LVL23:
.L14:
.LBE120:
	.loc 1 354 3 is_stmt 1
.LBB121:
.LBB122:
	.loc 1 237 2
.LBE122:
.LBE121:
	.loc 1 69 2
.LBB124:
.LBB123:
	.loc 1 239 2
	.loc 1 237 30 is_stmt 0
	lbu	a5,6(s0)
	.loc 1 239 13
	li	s3,28
.LVL24:
	lui	s1,%hi(_net_buf_pool_list)
	mul	a5,a5,s3
	addi	s1,s1,%lo(_net_buf_pool_list)
	.loc 1 239 9
	mv	a2,s2
	addi	a1,sp,12
.LVL25:
	mv	a0,s0
	.loc 1 239 13
	add	a5,s1,a5
	.loc 1 239 20
	lw	a5,20(a5)
	.loc 1 239 24
	lw	a5,0(a5)
	.loc 1 239 9
	lw	a5,0(a5)
	jalr	a5
.LVL26:
.LBE123:
.LBE124:
	.loc 1 354 14
	sw	a0,16(s0)
	.loc 1 355 3 is_stmt 1
	.loc 1 355 6 is_stmt 0
	bne	a0,zero,.L16
	.loc 1 357 20 is_stmt 1
	.loc 1 358 4
.LVL27:
.LBB125:
.LBB126:
	.loc 2 880 2
.LBE126:
.LBE125:
	.loc 1 69 2
.LBB129:
.LBB127:
	.loc 2 882 2
	.loc 2 882 37 is_stmt 0
	lbu	a0,6(s0)
.LVL28:
	.loc 2 882 2
	mv	a1,s0
.LBE127:
.LBE129:
	.loc 1 359 10
	li	s0,0
.LVL29:
.LBB130:
.LBB128:
	.loc 2 882 37
	mul	a0,a0,s3
.LVL30:
	.loc 2 882 2
	add	a0,s1,a0
	call	k_queue_prepend
.LVL31:
	j	.L8
.LVL32:
.L10:
.LBE128:
.LBE130:
.LBB131:
	.loc 1 301 3 is_stmt 1
	.loc 1 301 22 is_stmt 0
	lhu	s4,14(s1)
	.loc 1 302 3
	mv	a0,s5
	.loc 1 301 36
	addi	a5,s4,-1
	sh	a5,14(s1)
.LVL33:
	.loc 1 302 3 is_stmt 1
	call	irq_unlock
.LVL34:
	.loc 1 304 3
.LBB116:
.LBB117:
	.loc 1 100 2
	.loc 1 102 2
	.loc 1 102 26 is_stmt 0
	lhu	s0,12(s1)
	.loc 1 102 38
	sub	s0,s0,s4
	.loc 1 102 21
	slli	a5,s0,5
	.loc 1 102 6
	lw	s0,24(s1)
	add	s0,s0,a5
.LVL35:
	.loc 1 104 2 is_stmt 1
.LBB118:
.LBB119:
	.loc 1 86 2
	.loc 1 86 14 is_stmt 0
	lui	a5,%hi(_net_buf_pool_list)
	addi	a5,a5,%lo(_net_buf_pool_list)
	sub	s1,s1,a5
.LVL36:
	li	a5,-1227132928
	srai	s1,s1,2
.LVL37:
	addi	a5,a5,-585
	mul	s1,s1,a5
.LBE119:
.LBE118:
	.loc 1 104 15
	sb	s1,6(s0)
	.loc 1 106 2 is_stmt 1
.LVL38:
.LBE117:
.LBE116:
	.loc 1 305 3
	j	.L11
.LVL39:
.L9:
.LBE131:
	.loc 1 308 2
	call	irq_unlock
.LVL40:
	.loc 1 337 2
	.loc 1 337 8 is_stmt 0
	mv	a1,s2
	mv	a0,s1
	call	k_queue_get
.LVL41:
	mv	s0,a0
.LVL42:
	.loc 1 339 2 is_stmt 1
	.loc 1 339 5 is_stmt 0
	bne	a0,zero,.L11
.LVL43:
.L8:
	.loc 1 377 1
	mv	a0,s0
	lw	ra,44(sp)
	.cfi_remember_state
	.cfi_restore 1
	lw	s0,40(sp)
	.cfi_restore 8
	lw	s1,36(sp)
	.cfi_restore 9
	lw	s2,32(sp)
	.cfi_restore 18
.LVL44:
	lw	s3,28(sp)
	.cfi_restore 19
	lw	s4,24(sp)
	.cfi_restore 20
	lw	s5,20(sp)
	.cfi_restore 21
	addi	sp,sp,48
	.cfi_def_cfa_offset 0
	jr	ra
.LVL45:
.L13:
	.cfi_restore_state
	.loc 1 362 3 is_stmt 1
	.loc 1 362 14 is_stmt 0
	sw	zero,16(s0)
.LVL46:
.L16:
	.loc 1 365 2 is_stmt 1
	.loc 1 366 2
	.loc 1 367 2
	.loc 1 365 11 is_stmt 0
	li	a5,1
	.loc 1 367 13
	sw	zero,0(s0)
	.loc 1 365 11
	sh	a5,4(s0)
	.loc 1 368 2 is_stmt 1
	.loc 1 368 12 is_stmt 0
	lw	a5,12(sp)
.LBB132:
.LBB133:
.LBB134:
	.loc 2 149 11
	sh	zero,12(s0)
.LBE134:
.LBE133:
.LBE132:
	.loc 1 368 12
	sh	a5,14(s0)
	.loc 1 369 2 is_stmt 1
.LVL47:
	.loc 1 111 2
	.loc 1 112 2
	.loc 1 114 2
.LBB137:
.LBB136:
.LBB135:
	.loc 2 149 2
	.loc 2 150 2
	.loc 2 150 12 is_stmt 0
	lw	a5,16(s0)
	sw	a5,8(s0)
.LVL48:
.LBE135:
.LBE136:
.LBE137:
	.loc 1 376 2 is_stmt 1
	.loc 1 376 9 is_stmt 0
	j	.L8
	.cfi_endproc
.LFE89:
	.size	net_buf_alloc_len, .-net_buf_alloc_len
	.section	.text.net_buf_alloc_fixed,"ax",@progbits
	.align	1
	.globl	net_buf_alloc_fixed
	.type	net_buf_alloc_fixed, @function
net_buf_alloc_fixed:
.LFB90:
	.loc 1 391 1 is_stmt 1
	.cfi_startproc
.LVL49:
	.loc 1 392 2
	.loc 1 394 2
	.loc 1 392 35 is_stmt 0
	lw	a5,20(a0)
	.loc 1 394 9
	mv	a2,a1
	lw	a5,4(a5)
	lw	a1,0(a5)
.LVL50:
	tail	net_buf_alloc_len
.LVL51:
	.cfi_endproc
.LFE90:
	.size	net_buf_alloc_fixed, .-net_buf_alloc_fixed
	.section	.text.net_buf_alloc_with_data,"ax",@progbits
	.align	1
	.globl	net_buf_alloc_with_data
	.type	net_buf_alloc_with_data, @function
net_buf_alloc_with_data:
.LFB91:
	.loc 1 408 1 is_stmt 1
	.cfi_startproc
.LVL52:
	.loc 1 409 2
	.loc 1 414 2
	.loc 1 408 1 is_stmt 0
	addi	sp,sp,-16
	.cfi_def_cfa_offset 16
	sw	s0,8(sp)
	sw	s1,4(sp)
	.cfi_offset 8, -8
	.cfi_offset 9, -12
	mv	s0,a2
	mv	s1,a1
	.loc 1 414 8
	mv	a2,a3
.LVL53:
	li	a1,0
.LVL54:
	.loc 1 408 1
	sw	ra,12(sp)
	.cfi_offset 1, -4
	.loc 1 414 8
	call	net_buf_alloc_len
.LVL55:
	.loc 1 416 2 is_stmt 1
	.loc 1 416 5 is_stmt 0
	beq	a0,zero,.L25
	.loc 1 420 2 is_stmt 1
	.loc 1 422 12 is_stmt 0
	slli	a2,s0,16
	srli	a2,a2,16
	.loc 1 424 13
	li	a5,2
	.loc 1 420 13
	sw	s1,16(a0)
	.loc 1 421 2 is_stmt 1
	.loc 1 421 12 is_stmt 0
	sw	s1,8(a0)
	.loc 1 422 2 is_stmt 1
	.loc 1 422 12 is_stmt 0
	sh	a2,14(a0)
	.loc 1 423 2 is_stmt 1
	.loc 1 423 11 is_stmt 0
	sh	a2,12(a0)
	.loc 1 424 2 is_stmt 1
	.loc 1 424 13 is_stmt 0
	sb	a5,5(a0)
	.loc 1 426 2 is_stmt 1
.L25:
	.loc 1 427 1 is_stmt 0
	lw	ra,12(sp)
	.cfi_restore 1
	lw	s0,8(sp)
	.cfi_restore 8
.LVL56:
	lw	s1,4(sp)
	.cfi_restore 9
.LVL57:
	addi	sp,sp,16
	.cfi_def_cfa_offset 0
	jr	ra
	.cfi_endproc
.LFE91:
	.size	net_buf_alloc_with_data, .-net_buf_alloc_with_data
	.section	.text.net_buf_get,"ax",@progbits
	.align	1
	.globl	net_buf_get
	.type	net_buf_get, @function
net_buf_get:
.LFB92:
	.loc 1 435 1 is_stmt 1
	.cfi_startproc
.LVL58:
	.loc 1 436 2
	.loc 1 438 2
	.loc 1 440 2
	.loc 1 435 1 is_stmt 0
	addi	sp,sp,-16
	.cfi_def_cfa_offset 16
	sw	s0,8(sp)
	sw	s1,4(sp)
	sw	s2,0(sp)
	sw	ra,12(sp)
	.cfi_offset 8, -8
	.cfi_offset 9, -12
	.cfi_offset 18, -16
	.cfi_offset 1, -4
	.loc 1 435 1
	mv	s2,a0
	.loc 1 440 8
	call	k_queue_get
.LVL59:
	mv	s1,a0
.LVL60:
	.loc 1 441 2 is_stmt 1
	mv	s0,a0
	.loc 1 441 5 is_stmt 0
	bne	a0,zero,.L33
.L31:
	.loc 1 460 1
	lw	ra,12(sp)
	.cfi_remember_state
	.cfi_restore 1
	lw	s0,8(sp)
	.cfi_restore 8
	mv	a0,s1
	lw	s2,0(sp)
	.cfi_restore 18
.LVL61:
	lw	s1,4(sp)
	.cfi_restore 9
.LVL62:
	addi	sp,sp,16
	.cfi_def_cfa_offset 0
	jr	ra
.LVL63:
.L34:
	.cfi_restore_state
	.loc 1 449 3 is_stmt 1 discriminator 3
	.loc 1 449 17 is_stmt 0 discriminator 3
	li	a1,0
	mv	a0,s2
	call	k_queue_get
.LVL64:
	.loc 1 453 15 discriminator 3
	lbu	a5,5(s0)
	.loc 1 449 15 discriminator 3
	sw	a0,0(s0)
	.loc 1 450 3 is_stmt 1 discriminator 3
	.loc 1 453 3 discriminator 3
	.loc 1 453 15 is_stmt 0 discriminator 3
	andi	a5,a5,-2
	sb	a5,5(s0)
.LVL65:
	.loc 1 448 54 discriminator 3
	mv	s0,a0
.LVL66:
.L33:
	.loc 1 448 2 discriminator 1
	lbu	a5,5(s0)
	andi	a5,a5,1
	bne	a5,zero,.L34
	.loc 1 457 2 is_stmt 1
	.loc 1 457 14 is_stmt 0
	sw	zero,0(s0)
	.loc 1 459 2 is_stmt 1
	.loc 1 459 9 is_stmt 0
	j	.L31
	.cfi_endproc
.LFE92:
	.size	net_buf_get, .-net_buf_get
	.section	.text.net_buf_simple_reserve,"ax",@progbits
	.align	1
	.globl	net_buf_simple_reserve
	.type	net_buf_simple_reserve, @function
net_buf_simple_reserve:
.LFB93:
	.loc 1 463 1 is_stmt 1
	.cfi_startproc
.LVL67:
	.loc 1 464 2
	.loc 1 465 2
	.loc 1 466 2
	.loc 1 468 2
	.loc 1 468 25 is_stmt 0
	lw	a5,8(a0)
	add	a1,a5,a1
.LVL68:
	.loc 1 468 12
	sw	a1,0(a0)
	.loc 1 469 1
	ret
	.cfi_endproc
.LFE93:
	.size	net_buf_simple_reserve, .-net_buf_simple_reserve
	.section	.text.net_buf_slist_put,"ax",@progbits
	.align	1
	.globl	net_buf_slist_put
	.type	net_buf_slist_put, @function
net_buf_slist_put:
.LFB94:
	.loc 1 472 1 is_stmt 1
	.cfi_startproc
.LVL69:
	.loc 1 473 2
	.loc 1 474 2
	.loc 1 476 2
	.loc 1 477 2
	.loc 1 479 2
	.loc 1 472 1 is_stmt 0
	addi	sp,sp,-32
	.cfi_def_cfa_offset 32
	sw	s0,24(sp)
	sw	s1,20(sp)
	sw	ra,28(sp)
	.cfi_offset 8, -8
	.cfi_offset 9, -12
	.cfi_offset 1, -4
	.loc 1 472 1
	mv	s1,a0
	.loc 1 479 12
	mv	s0,a1
.LVL70:
.L41:
	.loc 1 479 23 discriminator 1
	lw	a4,0(s0)
	.loc 1 479 2 discriminator 1
	bne	a4,zero,.L42
	sw	a1,12(sp)
	.loc 1 483 2 is_stmt 1
	.loc 1 483 8 is_stmt 0
	call	irq_lock
.LVL71:
	.loc 1 484 2 is_stmt 1
.LBB140:
.LBB141:
	.file 3 "/home/melody/work/Doiting_BL/bl_iot_sdk/components/network/ble/blestack/src/common/include/misc/slist.h"
	.loc 3 317 2
	.loc 3 317 11 is_stmt 0
	lw	a5,4(s1)
	.loc 3 317 5
	lw	a1,12(sp)
	bne	a5,zero,.L43
	.loc 3 318 3 is_stmt 1
	.loc 3 318 14 is_stmt 0
	sw	a1,0(s1)
	.loc 3 319 3 is_stmt 1
.LVL72:
.L46:
	.loc 3 322 3
	.loc 3 322 14 is_stmt 0
	sw	s0,4(s1)
.LVL73:
.LBE141:
.LBE140:
	.loc 1 485 2 is_stmt 1
	.loc 1 486 1 is_stmt 0
	lw	s0,24(sp)
	.cfi_remember_state
	.cfi_restore 8
.LVL74:
	lw	ra,28(sp)
	.cfi_restore 1
	lw	s1,20(sp)
	.cfi_restore 9
.LVL75:
	addi	sp,sp,32
	.cfi_def_cfa_offset 0
.LVL76:
	.loc 1 485 2
	tail	irq_unlock
.LVL77:
.L42:
	.cfi_restore_state
	.loc 1 480 3 is_stmt 1 discriminator 3
	.loc 1 480 15 is_stmt 0 discriminator 3
	lbu	a5,5(s0)
	ori	a5,a5,1
	sb	a5,5(s0)
.LVL78:
	mv	s0,a4
	j	.L41
.LVL79:
.L43:
.LBB143:
.LBB142:
	.loc 3 321 3 is_stmt 1
	.loc 3 321 20 is_stmt 0
	sw	a1,0(a5)
	j	.L46
.LBE142:
.LBE143:
	.cfi_endproc
.LFE94:
	.size	net_buf_slist_put, .-net_buf_slist_put
	.section	.text.net_buf_slist_get,"ax",@progbits
	.align	1
	.globl	net_buf_slist_get
	.type	net_buf_slist_get, @function
net_buf_slist_get:
.LFB95:
	.loc 1 489 1 is_stmt 1
	.cfi_startproc
.LVL80:
	.loc 1 490 2
	.loc 1 491 2
	.loc 1 493 2
	.loc 1 495 2
	.loc 1 489 1 is_stmt 0
	addi	sp,sp,-16
	.cfi_def_cfa_offset 16
	sw	s0,8(sp)
	.cfi_offset 8, -8
	mv	s0,a0
	sw	s2,0(sp)
	sw	ra,12(sp)
	sw	s1,4(sp)
	.cfi_offset 18, -16
	.cfi_offset 1, -4
	.cfi_offset 9, -12
	.loc 1 495 8
	call	irq_lock
.LVL81:
	.loc 1 496 2 is_stmt 1
.LBB152:
.LBB153:
	.loc 3 399 2
	.loc 3 399 9 is_stmt 0
	lw	s2,0(s0)
.LVL82:
.LBE153:
.LBE152:
	.loc 3 209 2 is_stmt 1
.LBB157:
.LBB156:
	.loc 3 399 40 is_stmt 0
	beq	s2,zero,.L48
.LVL83:
.LBB154:
.LBB155:
	.loc 3 378 2 is_stmt 1
	.loc 3 380 2
	.loc 3 380 19 is_stmt 0
	lw	a5,0(s2)
	.loc 3 381 5
	lw	a4,4(s0)
	.loc 3 380 13
	sw	a5,0(s0)
	.loc 3 381 2 is_stmt 1
	.loc 3 381 5 is_stmt 0
	bne	s2,a4,.L48
	.loc 3 382 3 is_stmt 1
	.loc 3 382 14 is_stmt 0
	sw	a5,4(s0)
.LVL84:
.L48:
.LBE155:
.LBE154:
.LBE156:
.LBE157:
	.loc 1 497 2 is_stmt 1
	call	irq_unlock
.LVL85:
	.loc 1 499 2
	mv	s1,s2
	.loc 1 499 5 is_stmt 0
	bne	s2,zero,.L50
.L47:
	.loc 1 519 1
	lw	ra,12(sp)
	.cfi_remember_state
	.cfi_restore 1
	lw	s0,8(sp)
	.cfi_restore 8
.LVL86:
	mv	a0,s2
	lw	s1,4(sp)
	.cfi_restore 9
	lw	s2,0(sp)
	.cfi_restore 18
.LVL87:
	addi	sp,sp,16
	.cfi_def_cfa_offset 0
	jr	ra
.LVL88:
.L52:
	.cfi_restore_state
	.loc 1 505 3 is_stmt 1 discriminator 3
	.loc 1 505 9 is_stmt 0 discriminator 3
	call	irq_lock
.LVL89:
	.loc 1 506 3 is_stmt 1 discriminator 3
.LBB158:
.LBB159:
	.loc 3 399 2 discriminator 3
	.loc 3 399 9 is_stmt 0 discriminator 3
	lw	a5,0(s0)
.LBE159:
.LBE158:
	.loc 3 209 2 is_stmt 1 discriminator 3
.LBB163:
.LBB162:
	.loc 3 399 40 is_stmt 0 discriminator 3
	beq	a5,zero,.L51
.LVL90:
.LBB160:
.LBB161:
	.loc 3 378 2 is_stmt 1
	.loc 3 380 2
	.loc 3 380 19 is_stmt 0
	lw	a4,0(a5)
	.loc 3 381 5
	lw	a3,4(s0)
	.loc 3 380 13
	sw	a4,0(s0)
	.loc 3 381 2 is_stmt 1
	.loc 3 381 5 is_stmt 0
	bne	a5,a3,.L51
	.loc 3 382 3 is_stmt 1
	.loc 3 382 14 is_stmt 0
	sw	a4,4(s0)
.LVL91:
.L51:
.LBE161:
.LBE160:
.LBE162:
.LBE163:
	.loc 1 506 15
	sw	a5,0(s1)
	.loc 1 507 3 is_stmt 1
	call	irq_unlock
.LVL92:
	.loc 1 509 3
	.loc 1 512 3
	.loc 1 512 15 is_stmt 0
	lbu	a5,5(s1)
	andi	a5,a5,-2
	sb	a5,5(s1)
	.loc 1 504 54
	lw	s1,0(s1)
.LVL93:
.L50:
	.loc 1 504 2 discriminator 1
	lbu	a5,5(s1)
	andi	a5,a5,1
	bne	a5,zero,.L52
	.loc 1 516 2 is_stmt 1
	.loc 1 516 14 is_stmt 0
	sw	zero,0(s1)
	.loc 1 518 2 is_stmt 1
	.loc 1 518 9 is_stmt 0
	j	.L47
	.cfi_endproc
.LFE95:
	.size	net_buf_slist_get, .-net_buf_slist_get
	.section	.text.net_buf_put,"ax",@progbits
	.align	1
	.globl	net_buf_put
	.type	net_buf_put, @function
net_buf_put:
.LFB96:
	.loc 1 522 1 is_stmt 1
	.cfi_startproc
.LVL94:
	.loc 1 523 2
	.loc 1 525 2
	.loc 1 526 2
	.loc 1 528 2
	.loc 1 528 12 is_stmt 0
	mv	a2,a1
.LVL95:
.L64:
	.loc 1 528 23 discriminator 1
	lw	a4,0(a2)
	.loc 1 528 2 discriminator 1
	bne	a4,zero,.L65
	.loc 1 532 2 is_stmt 1
	tail	k_queue_append_list
.LVL96:
.L65:
	.loc 1 529 3 discriminator 3
	.loc 1 529 15 is_stmt 0 discriminator 3
	lbu	a5,5(a2)
	ori	a5,a5,1
	sb	a5,5(a2)
.LVL97:
	mv	a2,a4
	j	.L64
	.cfi_endproc
.LFE96:
	.size	net_buf_put, .-net_buf_put
	.section	.text.net_buf_unref,"ax",@progbits
	.align	1
	.globl	net_buf_unref
	.type	net_buf_unref, @function
net_buf_unref:
.LFB97:
	.loc 1 545 1 is_stmt 1
	.cfi_startproc
.LVL98:
	.loc 1 546 2
	.loc 1 548 2
	.loc 1 545 1 is_stmt 0
	addi	sp,sp,-32
	.cfi_def_cfa_offset 32
	sw	s2,16(sp)
	sw	s3,12(sp)
	.cfi_offset 18, -16
	.cfi_offset 19, -20
	lui	s2,%hi(_net_buf_pool_list)
.LBB173:
	.loc 1 590 11
	lui	s3,%hi(hci_rx_pool)
.LBE173:
	.loc 1 545 1
	sw	s0,24(sp)
	sw	s4,8(sp)
	sw	ra,28(sp)
	sw	s1,20(sp)
	sw	s5,4(sp)
	.cfi_offset 8, -8
	.cfi_offset 20, -24
	.cfi_offset 1, -4
	.cfi_offset 9, -12
	.cfi_offset 21, -28
	.loc 1 545 1
	mv	s0,a0
	addi	s2,s2,%lo(_net_buf_pool_list)
.LBB186:
.LBB174:
.LBB175:
	.loc 1 257 6
	li	s4,28
.LBE175:
.LBE174:
	.loc 1 590 11
	addi	s3,s3,%lo(hci_rx_pool)
.LVL99:
.L67:
.LBE186:
	.loc 1 548 8
	bne	s0,zero,.L74
.L66:
	.loc 1 596 1
	lw	ra,28(sp)
	.cfi_remember_state
	.cfi_restore 1
	lw	s0,24(sp)
	.cfi_restore 8
.LVL100:
	lw	s1,20(sp)
	.cfi_restore 9
	lw	s2,16(sp)
	.cfi_restore 18
	lw	s3,12(sp)
	.cfi_restore 19
	lw	s4,8(sp)
	.cfi_restore 20
	lw	s5,4(sp)
	.cfi_restore 21
	addi	sp,sp,32
	.cfi_def_cfa_offset 0
	jr	ra
.LVL101:
.L74:
	.cfi_restore_state
.LBB187:
	.loc 1 549 3 is_stmt 1
	.loc 1 562 7 is_stmt 0
	lbu	a5,4(s0)
	.loc 1 549 19
	lw	s5,0(s0)
.LVL102:
	.loc 1 550 3 is_stmt 1
	.loc 1 560 33
	.loc 1 562 3
	.loc 1 562 7 is_stmt 0
	addi	a5,a5,-1
	andi	a5,a5,0xff
	.loc 1 562 6
	sb	a5,4(s0)
	bne	a5,zero,.L66
	.loc 1 566 3 is_stmt 1
	.loc 1 566 10 is_stmt 0
	lw	a1,16(s0)
	.loc 1 566 6
	beq	a1,zero,.L70
	.loc 1 567 4 is_stmt 1
.LVL103:
.LBB178:
.LBB176:
	.loc 1 251 2
.LBE176:
.LBE178:
.LBE187:
	.loc 1 69 2
.LBB188:
.LBB179:
.LBB177:
	.loc 1 253 2
	.loc 1 253 5 is_stmt 0
	lbu	a5,5(s0)
	andi	a5,a5,2
	bne	a5,zero,.L71
	.loc 1 257 2 is_stmt 1
	.loc 1 257 6 is_stmt 0
	lbu	a5,6(s0)
	.loc 1 257 2
	mv	a0,s0
	.loc 1 257 6
	mul	a5,a5,s4
	add	a5,s2,a5
	.loc 1 257 13
	lw	a5,20(a5)
	.loc 1 257 17
	lw	a5,0(a5)
	.loc 1 257 2
	lw	a5,8(a5)
	jalr	a5
.LVL104:
.L71:
.LBE177:
.LBE179:
	.loc 1 568 4 is_stmt 1
	.loc 1 568 15 is_stmt 0
	sw	zero,16(s0)
.L70:
	.loc 1 571 3 is_stmt 1
	.loc 1 574 30 is_stmt 0
	lbu	s1,6(s0)
	.loc 1 571 13
	sw	zero,8(s0)
	.loc 1 572 3 is_stmt 1
	.loc 1 572 14 is_stmt 0
	sw	zero,0(s0)
	.loc 1 574 3 is_stmt 1
.LVL105:
.LBB180:
.LBB181:
	.loc 1 69 2
	.loc 1 69 9 is_stmt 0
	mul	s1,s1,s4
.LVL106:
	add	s1,s2,s1
.LVL107:
.LBE181:
.LBE180:
	.loc 1 581 3 is_stmt 1
	.loc 1 581 11 is_stmt 0
	lw	a5,16(s1)
	.loc 1 581 6
	beq	a5,zero,.L72
	.loc 1 582 4 is_stmt 1
	mv	a0,s0
	jalr	a5
.LVL108:
.L73:
	.loc 1 587 3
	.loc 1 590 9
	.loc 1 587 7 is_stmt 0
	mv	s0,s5
	.loc 1 590 11
	bne	s1,s3,.L67
.LVL109:
	.loc 1 591 13 is_stmt 1
.LBE188:
	.loc 1 596 1 is_stmt 0
	lw	s0,24(sp)
	.cfi_remember_state
	.cfi_restore 8
.LVL110:
	lw	ra,28(sp)
	.cfi_restore 1
	lw	s1,20(sp)
	.cfi_restore 9
.LVL111:
	lw	s2,16(sp)
	.cfi_restore 18
	lw	s3,12(sp)
	.cfi_restore 19
	lw	s4,8(sp)
	.cfi_restore 20
	lw	s5,4(sp)
	.cfi_restore 21
.LVL112:
	addi	sp,sp,32
	.cfi_def_cfa_offset 0
.LBB189:
	.loc 1 591 13
	tail	bl_handle_queued_msg
.LVL113:
.L72:
	.cfi_restore_state
	.loc 1 584 4 is_stmt 1
.LBB182:
.LBB183:
	.loc 2 880 2
.LBE183:
.LBE182:
.LBE189:
	.loc 1 69 2
.LBB190:
.LBB185:
.LBB184:
	.loc 2 882 2
	mv	a1,s0
	mv	a0,s1
	call	k_queue_prepend
.LVL114:
	j	.L73
.LBE184:
.LBE185:
.LBE190:
	.cfi_endproc
.LFE97:
	.size	net_buf_unref, .-net_buf_unref
	.section	.text.net_buf_ref,"ax",@progbits
	.align	1
	.globl	net_buf_ref
	.type	net_buf_ref, @function
net_buf_ref:
.LFB98:
	.loc 1 599 1
	.cfi_startproc
.LVL115:
	.loc 1 600 2
	.loc 1 603 35
	.loc 1 604 2
	.loc 1 604 10 is_stmt 0
	lbu	a5,4(a0)
	addi	a5,a5,1
	sb	a5,4(a0)
	.loc 1 605 2 is_stmt 1
	.loc 1 606 1 is_stmt 0
	ret
	.cfi_endproc
.LFE98:
	.size	net_buf_ref, .-net_buf_ref
	.section	.text.net_buf_frag_last,"ax",@progbits
	.align	1
	.globl	net_buf_frag_last
	.type	net_buf_frag_last, @function
net_buf_frag_last:
.LFB100:
	.loc 1 655 1 is_stmt 1
	.cfi_startproc
.LVL116:
	.loc 1 656 2
	.loc 1 658 2
.L83:
	.loc 1 658 12 is_stmt 0
	lw	a5,0(a0)
	.loc 1 658 8
	bne	a5,zero,.L84
	.loc 1 663 1
	ret
.L84:
	mv	a0,a5
.LVL117:
	j	.L83
	.cfi_endproc
.LFE100:
	.size	net_buf_frag_last, .-net_buf_frag_last
	.section	.text.net_buf_frag_insert,"ax",@progbits
	.align	1
	.globl	net_buf_frag_insert
	.type	net_buf_frag_insert, @function
net_buf_frag_insert:
.LFB101:
	.loc 1 666 1 is_stmt 1
	.cfi_startproc
.LVL118:
	.loc 1 667 2
	.loc 1 668 2
	.loc 1 670 2
	.loc 1 670 12 is_stmt 0
	lw	a4,0(a0)
	mv	a5,a1
	.loc 1 670 5
	bne	a4,zero,.L87
.L86:
	.loc 1 674 2 is_stmt 1
	.loc 1 674 16 is_stmt 0
	sw	a1,0(a0)
	.loc 1 675 1
	ret
.LVL119:
.L88:
.LBB191:
.LBB192:
	.loc 1 658 8
	mv	a5,a3
.LVL120:
.L87:
	.loc 1 658 12
	lw	a3,0(a5)
	.loc 1 658 8
	bne	a3,zero,.L88
	.loc 1 662 2 is_stmt 1
.LVL121:
.LBE192:
.LBE191:
	.loc 1 671 34 is_stmt 0
	sw	a4,0(a5)
	j	.L86
	.cfi_endproc
.LFE101:
	.size	net_buf_frag_insert, .-net_buf_frag_insert
	.section	.text.net_buf_frag_add,"ax",@progbits
	.align	1
	.globl	net_buf_frag_add
	.type	net_buf_frag_add, @function
net_buf_frag_add:
.LFB102:
	.loc 1 678 1 is_stmt 1
	.cfi_startproc
.LVL122:
	.loc 1 679 2
	.loc 1 681 2
	.loc 1 681 5 is_stmt 0
	bne	a0,zero,.L98
	.loc 1 682 3 is_stmt 1
.LVL123:
.LBB202:
.LBB203:
	.loc 1 600 2
	.loc 1 603 35
	.loc 1 604 2
	.loc 1 604 10 is_stmt 0
	lbu	a5,4(a1)
.LBE203:
.LBE202:
	.loc 1 682 10
	mv	a0,a1
.LVL124:
.LBB205:
.LBB204:
	.loc 1 604 10
	addi	a5,a5,1
	sb	a5,4(a1)
	.loc 1 605 2 is_stmt 1
.LVL125:
.LBE204:
.LBE205:
	.loc 1 688 1 is_stmt 0
	ret
.LVL126:
.L96:
	.cfi_def_cfa_offset 16
	.cfi_offset 1, -4
	.cfi_offset 8, -8
.LBB206:
.LBB207:
.LBB208:
.LBB209:
	.loc 1 658 8
	mv	a0,a4
.LVL127:
.L93:
	.loc 1 658 12
	lw	a4,0(a0)
	.loc 1 658 8
	bne	a4,zero,.L96
	.loc 1 662 2 is_stmt 1
.LVL128:
.LBE209:
.LBE208:
	.loc 1 685 2 is_stmt 0
	call	net_buf_frag_insert
.LVL129:
	.loc 1 687 2 is_stmt 1
	.loc 1 685 2 is_stmt 0
	mv	a0,s0
.LBE207:
.LBE206:
	.loc 1 688 1
	lw	ra,12(sp)
	.cfi_restore 1
	lw	s0,8(sp)
	.cfi_restore 8
.LVL130:
	addi	sp,sp,16
	.cfi_def_cfa_offset 0
	jr	ra
.LVL131:
.L98:
	.loc 1 678 1
	addi	sp,sp,-16
	.cfi_def_cfa_offset 16
	sw	s0,8(sp)
	sw	ra,12(sp)
	.cfi_offset 8, -8
	.cfi_offset 1, -4
	mv	s0,a0
	j	.L93
	.cfi_endproc
.LFE102:
	.size	net_buf_frag_add, .-net_buf_frag_add
	.section	.text.net_buf_frag_del,"ax",@progbits
	.align	1
	.globl	net_buf_frag_del
	.type	net_buf_frag_del, @function
net_buf_frag_del:
.LFB103:
	.loc 1 697 1 is_stmt 1
	.cfi_startproc
.LVL132:
	.loc 1 698 2
	.loc 1 700 2
	.loc 1 702 2
	.loc 1 697 1 is_stmt 0
	addi	sp,sp,-16
	.cfi_def_cfa_offset 16
	sw	ra,12(sp)
	sw	s0,8(sp)
	.cfi_offset 1, -4
	.cfi_offset 8, -8
	.loc 1 702 5
	beq	a0,zero,.L103
	lw	a5,0(a1)
	.loc 1 703 3 is_stmt 1
	.loc 1 704 3
	.loc 1 705 3
	.loc 1 705 17 is_stmt 0
	sw	a5,0(a0)
.L103:
	.loc 1 708 2 is_stmt 1
	.loc 1 708 12 is_stmt 0
	lw	s0,0(a1)
.LVL133:
	.loc 1 710 2 is_stmt 1
	.loc 1 715 2 is_stmt 0
	mv	a0,a1
.LVL134:
	.loc 1 710 14
	sw	zero,0(a1)
	.loc 1 715 2 is_stmt 1
	call	net_buf_unref
.LVL135:
	.loc 1 718 2
	.loc 1 719 1 is_stmt 0
	mv	a0,s0
	lw	ra,12(sp)
	.cfi_restore 1
	lw	s0,8(sp)
	.cfi_restore 8
.LVL136:
	addi	sp,sp,16
	.cfi_def_cfa_offset 0
	jr	ra
	.cfi_endproc
.LFE103:
	.size	net_buf_frag_del, .-net_buf_frag_del
	.section	.text.net_buf_linearize,"ax",@progbits
	.align	1
	.globl	net_buf_linearize
	.type	net_buf_linearize, @function
net_buf_linearize:
.LFB104:
	.loc 1 723 1 is_stmt 1
	.cfi_startproc
.LVL137:
	addi	sp,sp,-32
	.cfi_def_cfa_offset 32
	sw	s1,20(sp)
	sw	s4,8(sp)
	sw	ra,28(sp)
	sw	s0,24(sp)
	sw	s2,16(sp)
	sw	s3,12(sp)
	.cfi_offset 9, -12
	.cfi_offset 20, -24
	.cfi_offset 1, -4
	.cfi_offset 8, -8
	.cfi_offset 18, -16
	.cfi_offset 19, -20
	mv	s4,a0
	mv	s1,a2
	.loc 1 724 2
	.loc 1 725 2
	.loc 1 726 2
	.loc 1 728 2
.LVL138:
	.loc 1 730 2
	.loc 1 733 2
.L109:
	.loc 1 733 8 is_stmt 0
	beq	s1,zero,.L116
	.loc 1 733 31 discriminator 1
	lhu	a5,12(s1)
	.loc 1 733 14 discriminator 1
	bleu	a5,a3,.L111
	.loc 1 728 6
	mv	s0,a1
	bleu	a1,a4,.L112
.LVL139:
	mv	s0,a4
.LVL140:
.L112:
	li	s3,0
.LVL141:
.L113:
	.loc 1 740 14 discriminator 1
	beq	s0,zero,.L108
	.loc 1 741 3 is_stmt 1
	.loc 1 741 28 is_stmt 0
	lhu	s2,12(s1)
	.loc 1 741 34
	sub	s2,s2,a3
	.loc 1 741 11
	bleu	s2,s0,.L114
	mv	s2,s0
.L114:
.LVL142:
	.loc 1 742 3 is_stmt 1
	.loc 1 742 43 is_stmt 0
	lw	a1,8(s1)
	.loc 1 742 3
	add	a0,s4,s3
	mv	a2,s2
	add	a1,a1,a3
	call	memcpy
.LVL143:
	.loc 1 744 3 is_stmt 1
	.loc 1 748 8 is_stmt 0
	lw	s1,0(s1)
.LVL144:
	.loc 1 744 10
	add	s3,s3,s2
.LVL145:
	.loc 1 747 3 is_stmt 1
	.loc 1 747 7 is_stmt 0
	sub	s0,s0,s2
.LVL146:
	.loc 1 748 3 is_stmt 1
	.loc 1 751 3
	.loc 1 751 10 is_stmt 0
	li	a3,0
	.loc 1 740 8
	bne	s1,zero,.L113
.LVL147:
.L108:
	.loc 1 755 1
	lw	ra,28(sp)
	.cfi_remember_state
	.cfi_restore 1
	lw	s0,24(sp)
	.cfi_restore 8
	mv	a0,s3
	lw	s1,20(sp)
	.cfi_restore 9
.LVL148:
	lw	s2,16(sp)
	.cfi_restore 18
	lw	s3,12(sp)
	.cfi_restore 19
	lw	s4,8(sp)
	.cfi_restore 20
.LVL149:
	addi	sp,sp,32
	.cfi_def_cfa_offset 0
	jr	ra
.LVL150:
.L111:
	.cfi_restore_state
	.loc 1 734 3 is_stmt 1
	.loc 1 734 10 is_stmt 0
	sub	a3,a3,a5
.LVL151:
	.loc 1 735 3 is_stmt 1
	.loc 1 735 8 is_stmt 0
	lw	s1,0(s1)
.LVL152:
	j	.L109
.L116:
	li	s3,0
	.loc 1 754 2 is_stmt 1
	.loc 1 754 9 is_stmt 0
	j	.L108
	.cfi_endproc
.LFE104:
	.size	net_buf_linearize, .-net_buf_linearize
	.section	.text.net_buf_simple_clone,"ax",@progbits
	.align	1
	.globl	net_buf_simple_clone
	.type	net_buf_simple_clone, @function
net_buf_simple_clone:
.LFB106:
	.loc 1 809 1 is_stmt 1
	.cfi_startproc
.LVL153:
	.loc 1 810 2
	.loc 1 809 1 is_stmt 0
	mv	a5,a1
	.loc 1 810 2
	li	a2,12
	mv	a1,a0
.LVL154:
	mv	a0,a5
.LVL155:
	tail	memcpy
.LVL156:
	.cfi_endproc
.LFE106:
	.size	net_buf_simple_clone, .-net_buf_simple_clone
	.section	.text.net_buf_simple_add,"ax",@progbits
	.align	1
	.globl	net_buf_simple_add
	.type	net_buf_simple_add, @function
net_buf_simple_add:
.LFB107:
	.loc 1 814 1 is_stmt 1
	.cfi_startproc
.LVL157:
	.loc 1 815 2
.LBB210:
.LBB211:
	.loc 2 384 2
	.loc 2 384 24 is_stmt 0
	lhu	a5,4(a0)
	.loc 2 384 19
	lw	a4,0(a0)
.LVL158:
.LBE211:
.LBE210:
	.loc 1 817 2 is_stmt 1
	.loc 1 819 2
	.loc 1 821 2
	.loc 1 821 11 is_stmt 0
	add	a1,a5,a1
.LVL159:
	sh	a1,4(a0)
	.loc 1 822 2 is_stmt 1
	.loc 1 823 1 is_stmt 0
	add	a0,a4,a5
.LVL160:
	ret
	.cfi_endproc
.LFE107:
	.size	net_buf_simple_add, .-net_buf_simple_add
	.section	.text.net_buf_simple_add_mem,"ax",@progbits
	.align	1
	.globl	net_buf_simple_add_mem
	.type	net_buf_simple_add_mem, @function
net_buf_simple_add_mem:
.LFB108:
	.loc 1 827 1 is_stmt 1
	.cfi_startproc
.LVL161:
	.loc 1 828 2
	.loc 1 830 2
.LBB212:
.LBB213:
	.loc 1 815 2
.LBB214:
.LBB215:
	.loc 2 384 2
	.loc 2 384 24 is_stmt 0
	lhu	a5,4(a0)
	.loc 2 384 19
	lw	a4,0(a0)
.LVL162:
.LBE215:
.LBE214:
	.loc 1 817 2 is_stmt 1
	.loc 1 819 2
	.loc 1 821 2
	.loc 1 821 11 is_stmt 0
	add	a3,a5,a2
	sh	a3,4(a0)
	.loc 1 822 2 is_stmt 1
.LVL163:
.LBE213:
.LBE212:
	.loc 1 830 9 is_stmt 0
	add	a0,a4,a5
.LVL164:
	tail	memcpy
.LVL165:
	.cfi_endproc
.LFE108:
	.size	net_buf_simple_add_mem, .-net_buf_simple_add_mem
	.section	.text.net_buf_clone,"ax",@progbits
	.align	1
	.globl	net_buf_clone
	.type	net_buf_clone, @function
net_buf_clone:
.LFB99:
	.loc 1 609 1 is_stmt 1
	.cfi_startproc
.LVL166:
	.loc 1 610 2
	.loc 1 609 1 is_stmt 0
	addi	sp,sp,-64
	.cfi_def_cfa_offset 64
	sw	s1,52(sp)
	.cfi_offset 9, -12
	mv	s1,a0
	sw	ra,60(sp)
	sw	s0,56(sp)
	sw	s2,48(sp)
	sw	s3,44(sp)
	.cfi_offset 1, -4
	.cfi_offset 8, -8
	.cfi_offset 18, -16
	.cfi_offset 19, -20
	mv	s2,a1
	sw	s4,40(sp)
	sw	s5,36(sp)
	sw	s6,32(sp)
	sw	s7,28(sp)
	.cfi_offset 20, -24
	.cfi_offset 21, -28
	.cfi_offset 22, -32
	.cfi_offset 23, -36
	.loc 1 610 22
	call	k_uptime_get_32
.LVL167:
	.loc 1 616 29
	lbu	s3,6(s1)
.LBB231:
.LBB232:
	.loc 1 69 9
	li	s7,28
	lui	s4,%hi(_net_buf_pool_list)
	mul	s3,s3,s7
	addi	s6,s4,%lo(_net_buf_pool_list)
.LBE232:
.LBE231:
	.loc 1 610 22
	mv	s5,a0
.LVL168:
	.loc 1 611 2 is_stmt 1
	.loc 1 612 2
	.loc 1 614 2
	.loc 1 616 2
.LBB235:
.LBB233:
	.loc 1 69 2
.LBE233:
.LBE235:
	.loc 1 618 2
	.loc 1 618 10 is_stmt 0
	mv	a2,s2
	li	a1,0
.LBB236:
.LBB234:
	.loc 1 69 9
	add	s3,s3,s6
.LBE234:
.LBE236:
	.loc 1 618 10
	mv	a0,s3
.LVL169:
	call	net_buf_alloc_len
.LVL170:
	mv	s0,a0
.LVL171:
	.loc 1 619 2 is_stmt 1
	.loc 1 619 5 is_stmt 0
	beq	a0,zero,.L124
	.loc 1 626 17
	lw	a5,20(s3)
	addi	s4,s4,%lo(_net_buf_pool_list)
	.loc 1 626 2 is_stmt 1
	.loc 1 626 21 is_stmt 0
	lw	a5,0(a5)
	.loc 1 626 5
	lw	a5,4(a5)
	beq	a5,zero,.L126
	.loc 1 626 27 discriminator 1
	lbu	a4,5(s1)
	andi	a4,a4,2
	bne	a4,zero,.L126
	.loc 1 627 3 is_stmt 1
.LVL172:
.LBB237:
.LBB238:
	.loc 1 244 2
.LBE238:
.LBE237:
	.loc 1 69 2
.LBB240:
.LBB239:
	.loc 1 246 2
	.loc 1 244 30 is_stmt 0
	lbu	a5,6(s1)
	.loc 1 246 9
	lw	a1,16(s1)
	mv	a0,s1
	.loc 1 246 13
	mul	a5,a5,s7
	add	s6,s6,a5
	.loc 1 246 20
	lw	a5,20(s6)
	.loc 1 246 24
	lw	a5,0(a5)
	.loc 1 246 9
	lw	a5,4(a5)
	jalr	a5
.LVL173:
.LBE239:
.LBE240:
	.loc 1 627 16
	sw	a0,16(s0)
	.loc 1 628 3 is_stmt 1
	.loc 1 628 20 is_stmt 0
	lw	a5,8(s1)
	.loc 1 628 15
	sw	a5,8(s0)
	.loc 1 629 3 is_stmt 1
	.loc 1 629 19 is_stmt 0
	lhu	a5,12(s1)
	.loc 1 629 14
	sh	a5,12(s0)
	.loc 1 630 3 is_stmt 1
	.loc 1 630 20 is_stmt 0
	lhu	a5,14(s1)
	.loc 1 630 15
	sh	a5,14(s0)
.LVL174:
.L124:
	.loc 1 652 1
	mv	a0,s0
	lw	ra,60(sp)
	.cfi_remember_state
	.cfi_restore 1
	lw	s0,56(sp)
	.cfi_restore 8
	lw	s1,52(sp)
	.cfi_restore 9
.LVL175:
	lw	s2,48(sp)
	.cfi_restore 18
.LVL176:
	lw	s3,44(sp)
	.cfi_restore 19
	lw	s4,40(sp)
	.cfi_restore 20
	lw	s5,36(sp)
	.cfi_restore 21
.LVL177:
	lw	s6,32(sp)
	.cfi_restore 22
	lw	s7,28(sp)
	.cfi_restore 23
	addi	sp,sp,64
	.cfi_def_cfa_offset 0
	jr	ra
.LVL178:
.L126:
	.cfi_restore_state
.LBB241:
	.loc 1 632 3 is_stmt 1
	.loc 1 632 20 is_stmt 0
	lhu	a5,14(s1)
	.loc 1 634 6
	li	a4,1
	.loc 1 632 20
	sw	a5,12(sp)
	.loc 1 634 3 is_stmt 1
	.loc 1 634 20 is_stmt 0
	addi	a5,s2,1
	.loc 1 634 6
	bleu	a5,a4,.L127
.LBB242:
	.loc 1 635 4 is_stmt 1
	.loc 1 635 17 is_stmt 0
	call	k_uptime_get_32
.LVL179:
	.loc 1 637 4 is_stmt 1
	.loc 1 635 10 is_stmt 0
	sub	a0,a0,s5
.LVL180:
	.loc 1 637 49
	bleu	a0,s2,.L128
	mv	a0,s2
.LVL181:
.L128:
	.loc 1 637 12
	sub	s2,s2,a0
.LVL182:
.L127:
.LBE242:
	.loc 1 640 3 is_stmt 1
.LBB243:
.LBB244:
	.loc 1 237 2
.LBE244:
.LBE243:
.LBE241:
	.loc 1 69 2
.LBB255:
.LBB246:
.LBB245:
	.loc 1 239 2
	.loc 1 237 30 is_stmt 0
	lbu	a5,6(s0)
	.loc 1 239 13
	li	a4,28
	.loc 1 239 9
	mv	a2,s2
	.loc 1 239 13
	mul	a5,a5,a4
	.loc 1 239 9
	addi	a1,sp,12
.LVL183:
	mv	a0,s0
	.loc 1 239 13
	add	a5,s4,a5
	.loc 1 239 20
	lw	a5,20(a5)
	.loc 1 239 24
	lw	a5,0(a5)
	.loc 1 239 9
	lw	a5,0(a5)
	jalr	a5
.LVL184:
.LBE245:
.LBE246:
	.loc 1 640 16
	sw	a0,16(s0)
	.loc 1 641 3 is_stmt 1
	.loc 1 641 6 is_stmt 0
	beq	a0,zero,.L129
	.loc 1 641 29 discriminator 1
	lw	a5,12(sp)
	.loc 1 641 34 discriminator 1
	lhu	a4,14(s1)
	.loc 1 641 21 discriminator 1
	bleu	a4,a5,.L130
.L129:
	.loc 1 642 4 is_stmt 1
.LVL185:
.LBB247:
.LBB248:
	.loc 2 880 2
.LBE248:
.LBE247:
.LBE255:
	.loc 1 69 2
.LBB256:
.LBB251:
.LBB249:
	.loc 2 882 2
	.loc 2 882 37 is_stmt 0
	lbu	a0,6(s0)
.LVL186:
	li	a5,28
	.loc 2 882 2
	mv	a1,s0
	.loc 2 882 37
	mul	a0,a0,a5
.LVL187:
.LBE249:
.LBE251:
	.loc 1 643 10
	li	s0,0
.LVL188:
.LBB252:
.LBB250:
	.loc 2 882 2
	add	a0,s4,a0
	call	k_queue_prepend
.LVL189:
.LBE250:
.LBE252:
	.loc 1 643 4 is_stmt 1
	j	.L124
.LVL190:
.L130:
	.loc 1 646 3
	.loc 1 646 15 is_stmt 0
	sh	a5,14(s0)
	.loc 1 647 3 is_stmt 1
.LVL191:
.LBB253:
.LBB254:
	.loc 1 981 2
	.loc 1 981 19 is_stmt 0
	lw	a5,8(s1)
	lw	a4,16(s1)
	sub	a5,a5,a4
.LBE254:
.LBE253:
	.loc 1 647 30
	add	a0,a0,a5
	.loc 1 647 15
	sw	a0,8(s0)
	.loc 1 648 3 is_stmt 1
	lhu	a2,12(s1)
	lw	a1,8(s1)
	addi	a0,s0,8
	call	net_buf_simple_add_mem
.LVL192:
	j	.L124
.LBE256:
	.cfi_endproc
.LFE99:
	.size	net_buf_clone, .-net_buf_clone
	.section	.text.net_buf_simple_add_u8,"ax",@progbits
	.align	1
	.globl	net_buf_simple_add_u8
	.type	net_buf_simple_add_u8, @function
net_buf_simple_add_u8:
.LFB109:
	.loc 1 834 1
	.cfi_startproc
.LVL193:
	.loc 1 835 2
	.loc 1 837 2
	.loc 1 839 2
.LBB257:
.LBB258:
	.loc 1 815 2
.LBB259:
.LBB260:
	.loc 2 384 2
	.loc 2 384 24 is_stmt 0
	lhu	a4,4(a0)
	.loc 2 384 19
	lw	a5,0(a0)
	add	a5,a5,a4
.LVL194:
.LBE260:
.LBE259:
	.loc 1 817 2 is_stmt 1
	.loc 1 819 2
	.loc 1 821 2
	.loc 1 821 11 is_stmt 0
	addi	a4,a4,1
	sh	a4,4(a0)
	.loc 1 822 2 is_stmt 1
.LVL195:
.LBE258:
.LBE257:
	.loc 1 840 2
	.loc 1 840 6 is_stmt 0
	sb	a1,0(a5)
	.loc 1 842 2 is_stmt 1
	.loc 1 843 1 is_stmt 0
	mv	a0,a5
.LVL196:
	ret
	.cfi_endproc
.LFE109:
	.size	net_buf_simple_add_u8, .-net_buf_simple_add_u8
	.section	.text.net_buf_simple_add_le16,"ax",@progbits
	.align	1
	.globl	net_buf_simple_add_le16
	.type	net_buf_simple_add_le16, @function
net_buf_simple_add_le16:
.LFB110:
	.loc 1 846 1 is_stmt 1
	.cfi_startproc
.LVL197:
	.loc 1 847 2
	.loc 1 849 2
.LBB261:
.LBB262:
	.loc 1 815 2
.LBB263:
.LBB264:
	.loc 2 384 2
	.loc 2 384 24 is_stmt 0
	lhu	a4,4(a0)
	.loc 2 384 19
	lw	a5,0(a0)
	add	a5,a5,a4
.LVL198:
.LBE264:
.LBE263:
	.loc 1 817 2 is_stmt 1
	.loc 1 819 2
	.loc 1 821 2
	.loc 1 821 11 is_stmt 0
	addi	a4,a4,2
	sh	a4,4(a0)
	.loc 1 822 2 is_stmt 1
.LVL199:
.LBE262:
.LBE261:
.LBB265:
.LBB266:
	.file 4 "/home/melody/work/Doiting_BL/bl_iot_sdk/components/network/ble/blestack/src/common/include/misc/byteorder.h"
	.loc 4 189 2
	.loc 4 189 9 is_stmt 0
	sb	a1,0(a5)
	.loc 4 190 2 is_stmt 1
	.loc 4 190 9 is_stmt 0
	srli	a1,a1,8
.LVL200:
	sb	a1,1(a5)
.LVL201:
.LBE266:
.LBE265:
	.loc 1 850 1
	ret
	.cfi_endproc
.LFE110:
	.size	net_buf_simple_add_le16, .-net_buf_simple_add_le16
	.section	.text.net_buf_simple_add_be16,"ax",@progbits
	.align	1
	.globl	net_buf_simple_add_be16
	.type	net_buf_simple_add_be16, @function
net_buf_simple_add_be16:
.LFB111:
	.loc 1 853 1 is_stmt 1
	.cfi_startproc
.LVL202:
	.loc 1 854 2
	.loc 1 856 2
.LBB267:
.LBB268:
	.loc 1 815 2
.LBB269:
.LBB270:
	.loc 2 384 2
	.loc 2 384 24 is_stmt 0
	lhu	a4,4(a0)
	.loc 2 384 19
	lw	a5,0(a0)
	add	a5,a5,a4
.LVL203:
.LBE270:
.LBE269:
	.loc 1 817 2 is_stmt 1
	.loc 1 819 2
	.loc 1 821 2
	.loc 1 821 11 is_stmt 0
	addi	a4,a4,2
	sh	a4,4(a0)
	.loc 1 822 2 is_stmt 1
.LVL204:
.LBE268:
.LBE267:
.LBB271:
.LBB272:
	.loc 4 159 2
	.loc 4 159 9 is_stmt 0
	srli	a4,a1,8
	sb	a4,0(a5)
	.loc 4 160 2 is_stmt 1
	.loc 4 160 9 is_stmt 0
	sb	a1,1(a5)
.LVL205:
.LBE272:
.LBE271:
	.loc 1 857 1
	ret
	.cfi_endproc
.LFE111:
	.size	net_buf_simple_add_be16, .-net_buf_simple_add_be16
	.section	.text.net_buf_simple_add_le32,"ax",@progbits
	.align	1
	.globl	net_buf_simple_add_le32
	.type	net_buf_simple_add_le32, @function
net_buf_simple_add_le32:
.LFB112:
	.loc 1 860 1 is_stmt 1
	.cfi_startproc
.LVL206:
	.loc 1 861 2
	.loc 1 863 2
.LBB283:
.LBB284:
	.loc 1 815 2
.LBB285:
.LBB286:
	.loc 2 384 2
	.loc 2 384 24 is_stmt 0
	lhu	a4,4(a0)
	.loc 2 384 19
	lw	a5,0(a0)
	add	a5,a5,a4
.LVL207:
.LBE286:
.LBE285:
	.loc 1 817 2 is_stmt 1
	.loc 1 819 2
	.loc 1 821 2
	.loc 1 821 11 is_stmt 0
	addi	a4,a4,4
	sh	a4,4(a0)
	.loc 1 822 2 is_stmt 1
.LVL208:
.LBE284:
.LBE283:
.LBB287:
.LBB288:
	.loc 4 204 2
.LBB289:
.LBB290:
	.loc 4 189 2
	.loc 4 190 9 is_stmt 0
	slli	a4,a1,16
	.loc 4 189 9
	sb	a1,0(a5)
	.loc 4 190 2 is_stmt 1
	.loc 4 190 9 is_stmt 0
	srli	a4,a4,16
.LBE290:
.LBE289:
	.loc 4 205 19
	srli	a1,a1,16
.LVL209:
.LBB293:
.LBB291:
	.loc 4 190 9
	srli	a4,a4,8
.LBE291:
.LBE293:
.LBB294:
.LBB295:
	.loc 4 189 9
	sb	a1,2(a5)
	.loc 4 190 9
	srli	a1,a1,8
.LBE295:
.LBE294:
.LBB297:
.LBB292:
	sb	a4,1(a5)
.LVL210:
.LBE292:
.LBE297:
	.loc 4 205 2 is_stmt 1
.LBB298:
.LBB296:
	.loc 4 189 2
	.loc 4 190 2
	.loc 4 190 9 is_stmt 0
	sb	a1,3(a5)
.LVL211:
.LBE296:
.LBE298:
.LBE288:
.LBE287:
	.loc 1 864 1
	ret
	.cfi_endproc
.LFE112:
	.size	net_buf_simple_add_le32, .-net_buf_simple_add_le32
	.section	.text.net_buf_simple_add_be32,"ax",@progbits
	.align	1
	.globl	net_buf_simple_add_be32
	.type	net_buf_simple_add_be32, @function
net_buf_simple_add_be32:
.LFB113:
	.loc 1 867 1 is_stmt 1
	.cfi_startproc
.LVL212:
	.loc 1 868 2
	.loc 1 870 2
.LBB309:
.LBB310:
	.loc 1 815 2
.LBB311:
.LBB312:
	.loc 2 384 2
	.loc 2 384 24 is_stmt 0
	lhu	a4,4(a0)
	.loc 2 384 19
	lw	a5,0(a0)
	add	a5,a5,a4
.LVL213:
.LBE312:
.LBE311:
	.loc 1 817 2 is_stmt 1
	.loc 1 819 2
	.loc 1 821 2
	.loc 1 821 11 is_stmt 0
	addi	a4,a4,4
	sh	a4,4(a0)
	.loc 1 822 2 is_stmt 1
.LVL214:
.LBE310:
.LBE309:
.LBB313:
.LBB314:
	.loc 4 174 2
	.loc 4 174 19 is_stmt 0
	srli	a4,a1,16
.LVL215:
.LBB315:
.LBB316:
	.loc 4 159 2 is_stmt 1
	.loc 4 159 9 is_stmt 0
	srli	a3,a4,8
	.loc 4 160 9
	sb	a4,1(a5)
.LBE316:
.LBE315:
.LBB318:
.LBB319:
	.loc 4 159 9
	slli	a4,a1,16
.LVL216:
	srli	a4,a4,16
	srli	a4,a4,8
.LBE319:
.LBE318:
.LBB321:
.LBB317:
	sb	a3,0(a5)
	.loc 4 160 2 is_stmt 1
.LVL217:
.LBE317:
.LBE321:
	.loc 4 175 2
.LBB322:
.LBB320:
	.loc 4 159 2
	.loc 4 159 9 is_stmt 0
	sb	a4,2(a5)
	.loc 4 160 2 is_stmt 1
	.loc 4 160 9 is_stmt 0
	sb	a1,3(a5)
.LVL218:
.LBE320:
.LBE322:
.LBE314:
.LBE313:
	.loc 1 871 1
	ret
	.cfi_endproc
.LFE113:
	.size	net_buf_simple_add_be32, .-net_buf_simple_add_be32
	.section	.text.net_buf_simple_push,"ax",@progbits
	.align	1
	.globl	net_buf_simple_push
	.type	net_buf_simple_push, @function
net_buf_simple_push:
.LFB114:
	.loc 1 874 1 is_stmt 1
	.cfi_startproc
.LVL219:
	.loc 1 875 2
	.loc 1 877 2
	.loc 1 879 2
	.loc 1 879 12 is_stmt 0
	lw	a5,0(a0)
	.loc 1 880 11
	lhu	a4,4(a0)
	.loc 1 879 12
	sub	a5,a5,a1
	.loc 1 880 11
	add	a1,a1,a4
.LVL220:
	.loc 1 879 12
	sw	a5,0(a0)
	.loc 1 880 2 is_stmt 1
	.loc 1 880 11 is_stmt 0
	sh	a1,4(a0)
	.loc 1 881 2 is_stmt 1
	.loc 1 882 1 is_stmt 0
	mv	a0,a5
.LVL221:
	ret
	.cfi_endproc
.LFE114:
	.size	net_buf_simple_push, .-net_buf_simple_push
	.section	.text.net_buf_simple_push_le16,"ax",@progbits
	.align	1
	.globl	net_buf_simple_push_le16
	.type	net_buf_simple_push_le16, @function
net_buf_simple_push_le16:
.LFB115:
	.loc 1 885 1 is_stmt 1
	.cfi_startproc
.LVL222:
	.loc 1 886 2
	.loc 1 888 2
.LBB323:
.LBB324:
	.loc 1 875 2
	.loc 1 877 2
	.loc 1 879 2
	.loc 1 879 12 is_stmt 0
	lw	a5,0(a0)
	addi	a4,a5,-2
	sw	a4,0(a0)
	.loc 1 880 2 is_stmt 1
	.loc 1 880 11 is_stmt 0
	lhu	a4,4(a0)
	addi	a4,a4,2
	sh	a4,4(a0)
	.loc 1 881 2 is_stmt 1
.LVL223:
.LBE324:
.LBE323:
.LBB325:
.LBB326:
	.loc 4 189 2
	.loc 4 189 9 is_stmt 0
	sb	a1,-2(a5)
.LVL224:
	.loc 4 190 2 is_stmt 1
	.loc 4 190 9 is_stmt 0
	srli	a1,a1,8
.LVL225:
	sb	a1,-1(a5)
.LVL226:
.LBE326:
.LBE325:
	.loc 1 889 1
	ret
	.cfi_endproc
.LFE115:
	.size	net_buf_simple_push_le16, .-net_buf_simple_push_le16
	.section	.text.net_buf_simple_push_be16,"ax",@progbits
	.align	1
	.globl	net_buf_simple_push_be16
	.type	net_buf_simple_push_be16, @function
net_buf_simple_push_be16:
.LFB116:
	.loc 1 892 1 is_stmt 1
	.cfi_startproc
.LVL227:
	.loc 1 893 2
	.loc 1 895 2
.LBB327:
.LBB328:
	.loc 1 875 2
	.loc 1 877 2
	.loc 1 879 2
	.loc 1 879 12 is_stmt 0
	lw	a5,0(a0)
	addi	a4,a5,-2
	sw	a4,0(a0)
	.loc 1 880 2 is_stmt 1
	.loc 1 880 11 is_stmt 0
	lhu	a4,4(a0)
	addi	a4,a4,2
	sh	a4,4(a0)
	.loc 1 881 2 is_stmt 1
.LVL228:
.LBE328:
.LBE327:
.LBB329:
.LBB330:
	.loc 4 159 2
	.loc 4 159 9 is_stmt 0
	srli	a4,a1,8
	sb	a4,-2(a5)
.LVL229:
	.loc 4 160 2 is_stmt 1
	.loc 4 160 9 is_stmt 0
	sb	a1,-1(a5)
.LVL230:
.LBE330:
.LBE329:
	.loc 1 896 1
	ret
	.cfi_endproc
.LFE116:
	.size	net_buf_simple_push_be16, .-net_buf_simple_push_be16
	.section	.text.net_buf_simple_push_u8,"ax",@progbits
	.align	1
	.globl	net_buf_simple_push_u8
	.type	net_buf_simple_push_u8, @function
net_buf_simple_push_u8:
.LFB117:
	.loc 1 899 1 is_stmt 1
	.cfi_startproc
.LVL231:
	.loc 1 900 2
.LBB331:
.LBB332:
	.loc 1 875 2
	.loc 1 877 2
	.loc 1 879 2
	.loc 1 879 12 is_stmt 0
	lw	a4,0(a0)
	addi	a5,a4,-1
	sw	a5,0(a0)
	.loc 1 880 2 is_stmt 1
	.loc 1 880 11 is_stmt 0
	lhu	a5,4(a0)
	addi	a5,a5,1
	sh	a5,4(a0)
	.loc 1 881 2 is_stmt 1
.LVL232:
.LBE332:
.LBE331:
	.loc 1 902 2
	.loc 1 902 8 is_stmt 0
	sb	a1,-1(a4)
.LVL233:
	.loc 1 903 1
	ret
	.cfi_endproc
.LFE117:
	.size	net_buf_simple_push_u8, .-net_buf_simple_push_u8
	.section	.text.net_buf_simple_pull,"ax",@progbits
	.align	1
	.globl	net_buf_simple_pull
	.type	net_buf_simple_pull, @function
net_buf_simple_pull:
.LFB118:
	.loc 1 906 1 is_stmt 1
	.cfi_startproc
.LVL234:
	.loc 1 907 2
	.loc 1 909 2
	.loc 1 911 2
	.loc 1 911 11 is_stmt 0
	lhu	a5,4(a0)
	sub	a5,a5,a1
	sh	a5,4(a0)
	.loc 1 912 2 is_stmt 1
	.loc 1 912 19 is_stmt 0
	lw	a5,0(a0)
	add	a1,a5,a1
.LVL235:
	sw	a1,0(a0)
	.loc 1 913 1
	mv	a0,a1
.LVL236:
	ret
	.cfi_endproc
.LFE118:
	.size	net_buf_simple_pull, .-net_buf_simple_pull
	.section	.text.net_buf_simple_pull_mem,"ax",@progbits
	.align	1
	.globl	net_buf_simple_pull_mem
	.type	net_buf_simple_pull_mem, @function
net_buf_simple_pull_mem:
.LFB119:
	.loc 1 916 1 is_stmt 1
	.cfi_startproc
.LVL237:
	.loc 1 917 2
	.loc 1 916 1 is_stmt 0
	mv	a5,a0
	.loc 1 923 11
	lhu	a4,4(a5)
	.loc 1 917 8
	lw	a0,0(a0)
.LVL238:
	.loc 1 919 2 is_stmt 1
	.loc 1 921 2
	.loc 1 923 2
	.loc 1 923 11 is_stmt 0
	sub	a4,a4,a1
	.loc 1 924 12
	add	a1,a0,a1
.LVL239:
	.loc 1 923 11
	sh	a4,4(a5)
	.loc 1 924 2 is_stmt 1
	.loc 1 924 12 is_stmt 0
	sw	a1,0(a5)
	.loc 1 926 2 is_stmt 1
	.loc 1 927 1 is_stmt 0
	ret
	.cfi_endproc
.LFE119:
	.size	net_buf_simple_pull_mem, .-net_buf_simple_pull_mem
	.section	.text.net_buf_simple_pull_u8,"ax",@progbits
	.align	1
	.globl	net_buf_simple_pull_u8
	.type	net_buf_simple_pull_u8, @function
net_buf_simple_pull_u8:
.LFB120:
	.loc 1 930 1 is_stmt 1
	.cfi_startproc
.LVL240:
	.loc 1 931 2
	.loc 1 933 2
	.loc 1 930 1 is_stmt 0
	addi	sp,sp,-16
	.cfi_def_cfa_offset 16
	sw	ra,12(sp)
	sw	s0,8(sp)
	.cfi_offset 1, -4
	.cfi_offset 8, -8
	.loc 1 933 6
	lw	a5,0(a0)
	.loc 1 934 2
	li	a1,1
	.loc 1 933 6
	lbu	s0,0(a5)
.LVL241:
	.loc 1 934 2 is_stmt 1
	call	net_buf_simple_pull
.LVL242:
	.loc 1 936 2
	.loc 1 937 1 is_stmt 0
	lw	ra,12(sp)
	.cfi_restore 1
	mv	a0,s0
	lw	s0,8(sp)
	.cfi_restore 8
.LVL243:
	addi	sp,sp,16
	.cfi_def_cfa_offset 0
	jr	ra
	.cfi_endproc
.LFE120:
	.size	net_buf_simple_pull_u8, .-net_buf_simple_pull_u8
	.section	.text.net_buf_simple_pull_le16,"ax",@progbits
	.align	1
	.globl	net_buf_simple_pull_le16
	.type	net_buf_simple_pull_le16, @function
net_buf_simple_pull_le16:
.LFB121:
	.loc 1 940 1 is_stmt 1
	.cfi_startproc
.LVL244:
	.loc 1 941 2
	.loc 1 943 2
.LBB333:
	.loc 1 943 25
	.loc 1 943 150
.LBE333:
	.loc 1 940 1 is_stmt 0
	addi	sp,sp,-16
	.cfi_def_cfa_offset 16
	sw	ra,12(sp)
.LVL245:
	sw	s0,8(sp)
	.cfi_offset 1, -4
	.cfi_offset 8, -8
.LBB334:
	.loc 1 943 153
	lw	a5,0(a0)
.LBE334:
	.loc 1 944 2
	li	a1,2
.LBB335:
	.loc 1 943 153
	lbu	s0,1(a5)
	lbu	a4,0(a5)
	slli	s0,s0,8
	or	s0,s0,a4
.LVL246:
.LBE335:
	.loc 1 944 2 is_stmt 1
	call	net_buf_simple_pull
.LVL247:
	.loc 1 946 2
	.loc 1 947 1 is_stmt 0
	mv	a0,s0
	lw	ra,12(sp)
	.cfi_restore 1
	lw	s0,8(sp)
	.cfi_restore 8
.LVL248:
	addi	sp,sp,16
	.cfi_def_cfa_offset 0
	jr	ra
	.cfi_endproc
.LFE121:
	.size	net_buf_simple_pull_le16, .-net_buf_simple_pull_le16
	.section	.text.net_buf_simple_pull_be16,"ax",@progbits
	.align	1
	.globl	net_buf_simple_pull_be16
	.type	net_buf_simple_pull_be16, @function
net_buf_simple_pull_be16:
.LFB122:
	.loc 1 950 1 is_stmt 1
	.cfi_startproc
.LVL249:
	.loc 1 951 2
	.loc 1 953 2
.LBB336:
	.loc 1 953 25
	.loc 1 953 150
.LBE336:
	.loc 1 950 1 is_stmt 0
	addi	sp,sp,-16
	.cfi_def_cfa_offset 16
	sw	ra,12(sp)
.LVL250:
	sw	s0,8(sp)
	.cfi_offset 1, -4
	.cfi_offset 8, -8
.LBB337:
	.loc 1 953 153
	lw	a5,0(a0)
.LBE337:
	.loc 1 954 2
	li	a1,2
.LBB338:
	.loc 1 953 153
	lbu	s0,1(a5)
	lbu	a4,0(a5)
	slli	s0,s0,8
	or	s0,s0,a4
.LVL251:
.LBE338:
	.loc 1 954 2 is_stmt 1
	call	net_buf_simple_pull
.LVL252:
	.loc 1 956 2
	.loc 1 956 41 is_stmt 0
	srli	a0,s0,8
	.loc 1 956 59
	slli	s0,s0,8
.LVL253:
	.loc 1 956 41
	or	a0,a0,s0
	.loc 1 957 1
	lw	ra,12(sp)
	.cfi_restore 1
	lw	s0,8(sp)
	.cfi_restore 8
	slli	a0,a0,16
	srli	a0,a0,16
	addi	sp,sp,16
	.cfi_def_cfa_offset 0
	jr	ra
	.cfi_endproc
.LFE122:
	.size	net_buf_simple_pull_be16, .-net_buf_simple_pull_be16
	.section	.text.net_buf_simple_pull_le32,"ax",@progbits
	.align	1
	.globl	net_buf_simple_pull_le32
	.type	net_buf_simple_pull_le32, @function
net_buf_simple_pull_le32:
.LFB123:
	.loc 1 960 1 is_stmt 1
	.cfi_startproc
.LVL254:
	.loc 1 961 2
	.loc 1 963 2
.LBB339:
	.loc 1 963 25
	.loc 1 963 150
.LBE339:
	.loc 1 960 1 is_stmt 0
	addi	sp,sp,-16
	.cfi_def_cfa_offset 16
	sw	ra,12(sp)
.LVL255:
	sw	s0,8(sp)
	.cfi_offset 1, -4
	.cfi_offset 8, -8
.LBB340:
	.loc 1 963 153
	lw	a4,0(a0)
.LBE340:
	.loc 1 964 2
	li	a1,4
.LBB341:
	.loc 1 963 153
	lbu	a5,1(a4)
	lbu	s0,0(a4)
	slli	a5,a5,8
	or	a5,a5,s0
	lbu	s0,2(a4)
	slli	s0,s0,16
	or	a5,s0,a5
	lbu	s0,3(a4)
	slli	s0,s0,24
	or	s0,s0,a5
.LVL256:
.LBE341:
	.loc 1 964 2 is_stmt 1
	call	net_buf_simple_pull
.LVL257:
	.loc 1 966 2
	.loc 1 967 1 is_stmt 0
	mv	a0,s0
	lw	ra,12(sp)
	.cfi_restore 1
	lw	s0,8(sp)
	.cfi_restore 8
.LVL258:
	addi	sp,sp,16
	.cfi_def_cfa_offset 0
	jr	ra
	.cfi_endproc
.LFE123:
	.size	net_buf_simple_pull_le32, .-net_buf_simple_pull_le32
	.section	.text.net_buf_simple_pull_be32,"ax",@progbits
	.align	1
	.globl	net_buf_simple_pull_be32
	.type	net_buf_simple_pull_be32, @function
net_buf_simple_pull_be32:
.LFB124:
	.loc 1 970 1 is_stmt 1
	.cfi_startproc
.LVL259:
	.loc 1 971 2
	.loc 1 973 2
.LBB342:
	.loc 1 973 25
	.loc 1 973 150
.LBE342:
	.loc 1 970 1 is_stmt 0
	addi	sp,sp,-16
	.cfi_def_cfa_offset 16
	sw	ra,12(sp)
.LVL260:
	sw	s0,8(sp)
	.cfi_offset 1, -4
	.cfi_offset 8, -8
.LBB343:
	.loc 1 973 153
	lw	a4,0(a0)
.LBE343:
	.loc 1 974 2
	li	a1,4
.LBB344:
	.loc 1 973 153
	lbu	a5,1(a4)
	lbu	s0,0(a4)
	slli	a5,a5,8
	or	a5,a5,s0
	lbu	s0,2(a4)
	slli	s0,s0,16
	or	a5,s0,a5
	lbu	s0,3(a4)
	slli	s0,s0,24
	or	s0,s0,a5
.LVL261:
.LBE344:
	.loc 1 974 2 is_stmt 1
	call	net_buf_simple_pull
.LVL262:
	.loc 1 976 2
	.loc 1 976 112 is_stmt 0
	slli	a5,s0,24
	.loc 1 976 34
	srli	a0,s0,24
	.loc 1 976 58
	li	a4,65536
	.loc 1 976 10
	or	a0,a0,a5
	.loc 1 976 58
	addi	a4,a4,-256
	.loc 1 976 52
	srli	a5,s0,8
	.loc 1 976 58
	and	a5,a5,a4
	.loc 1 976 10
	or	a0,a0,a5
	.loc 1 976 88
	slli	s0,s0,8
.LVL263:
	li	a5,16711680
	and	s0,s0,a5
	.loc 1 977 1
	or	a0,a0,s0
	lw	ra,12(sp)
	.cfi_restore 1
	lw	s0,8(sp)
	.cfi_restore 8
	addi	sp,sp,16
	.cfi_def_cfa_offset 0
	jr	ra
	.cfi_endproc
.LFE124:
	.size	net_buf_simple_pull_be32, .-net_buf_simple_pull_be32
	.section	.text.net_buf_simple_headroom,"ax",@progbits
	.align	1
	.globl	net_buf_simple_headroom
	.type	net_buf_simple_headroom, @function
net_buf_simple_headroom:
.LFB125:
	.loc 1 980 1 is_stmt 1
	.cfi_startproc
.LVL264:
	.loc 1 981 2
	.loc 1 981 19 is_stmt 0
	lw	a4,0(a0)
	lw	a0,8(a0)
.LVL265:
	.loc 1 982 1
	sub	a0,a4,a0
	ret
	.cfi_endproc
.LFE125:
	.size	net_buf_simple_headroom, .-net_buf_simple_headroom
	.section	.text.net_buf_simple_tailroom,"ax",@progbits
	.align	1
	.globl	net_buf_simple_tailroom
	.type	net_buf_simple_tailroom, @function
net_buf_simple_tailroom:
.LFB126:
	.loc 1 985 1 is_stmt 1
	.cfi_startproc
.LVL266:
	.loc 1 986 2
.LBB345:
.LBB346:
	.loc 1 981 2
.LBE346:
.LBE345:
	.loc 1 986 55 is_stmt 0
	lhu	a5,4(a0)
	.loc 1 986 12
	lhu	a4,6(a0)
	.loc 1 986 50
	sub	a4,a4,a5
.LBB348:
.LBB347:
	.loc 1 981 19
	lw	a5,0(a0)
	lw	a0,8(a0)
.LVL267:
	sub	a0,a5,a0
.LBE347:
.LBE348:
	.loc 1 987 1
	sub	a0,a4,a0
	ret
	.cfi_endproc
.LFE126:
	.size	net_buf_simple_tailroom, .-net_buf_simple_tailroom
	.section	.text.net_buf_append_bytes,"ax",@progbits
	.align	1
	.globl	net_buf_append_bytes
	.type	net_buf_append_bytes, @function
net_buf_append_bytes:
.LFB105:
	.loc 1 764 1 is_stmt 1
	.cfi_startproc
.LVL268:
	.loc 1 765 2
.LBB349:
.LBB350:
	.loc 1 656 2
	.loc 1 658 2
.LBE350:
.LBE349:
	.loc 1 764 1 is_stmt 0
	addi	sp,sp,-48
	.cfi_def_cfa_offset 48
	sw	s0,40(sp)
	sw	s2,32(sp)
	sw	s4,24(sp)
	sw	s5,20(sp)
	sw	s6,16(sp)
	sw	s7,12(sp)
	sw	s8,8(sp)
	sw	ra,44(sp)
	sw	s1,36(sp)
	sw	s3,28(sp)
	.cfi_offset 8, -8
	.cfi_offset 18, -16
	.cfi_offset 20, -24
	.cfi_offset 21, -28
	.cfi_offset 22, -32
	.cfi_offset 23, -36
	.cfi_offset 24, -40
	.cfi_offset 1, -4
	.cfi_offset 9, -12
	.cfi_offset 19, -20
	.loc 1 764 1
	mv	s5,a0
	mv	s2,a1
	mv	s4,a2
	mv	s6,a3
	mv	s7,a4
	mv	s8,a5
	mv	s0,a0
.LVL269:
.L165:
.LBB353:
.LBB351:
	.loc 1 658 12
	lw	a5,0(s0)
	.loc 1 658 8
	bne	a5,zero,.L170
.LBE351:
.LBE353:
	.loc 1 766 9
	li	s3,0
.LVL270:
.L169:
	.loc 1 769 2 is_stmt 1
.LBB354:
	.loc 1 770 3
	.loc 1 770 28 is_stmt 0
	addi	s0,s0,8
.LVL271:
	mv	a0,s0
	call	net_buf_simple_tailroom
.LVL272:
	.loc 1 770 9
	slli	s1,a0,16
	bleu	a0,s2,.L178
	.loc 1 770 9 discriminator 2
	slli	s1,s2,16
.L178:
	srli	s1,s1,16
.LVL273:
	.loc 1 772 3 is_stmt 1 discriminator 2
	mv	a1,s4
	mv	a2,s1
	mv	a0,s0
	.loc 1 773 7 is_stmt 0 discriminator 2
	sub	s2,s2,s1
.LVL274:
	.loc 1 772 3 discriminator 2
	call	net_buf_simple_add_mem
.LVL275:
	.loc 1 773 3 is_stmt 1 discriminator 2
	.loc 1 774 3 discriminator 2
	.loc 1 774 13 is_stmt 0 discriminator 2
	add	s3,s3,s1
.LVL276:
	.loc 1 775 3 is_stmt 1 discriminator 2
	.loc 1 775 10 is_stmt 0 discriminator 2
	add	s4,s4,s1
.LVL277:
	.loc 1 777 3 is_stmt 1 discriminator 2
	.loc 1 777 6 is_stmt 0 discriminator 2
	beq	s2,zero,.L164
	.loc 1 781 3 is_stmt 1
	.loc 1 781 10 is_stmt 0
	mv	a1,s8
	mv	a0,s6
	jalr	s7
.LVL278:
	mv	s0,a0
.LVL279:
	.loc 1 782 3 is_stmt 1
	.loc 1 782 6 is_stmt 0
	beq	a0,zero,.L164
	.loc 1 786 3 is_stmt 1
	mv	a1,a0
	mv	a0,s5
	call	net_buf_frag_add
.LVL280:
.LBE354:
	.loc 1 769 5 is_stmt 0
	j	.L169
.LVL281:
.L170:
.LBB355:
.LBB352:
	.loc 1 658 8
	mv	s0,a5
.LVL282:
	j	.L165
.LVL283:
.L164:
.LBE352:
.LBE355:
	.loc 1 791 1
	lw	ra,44(sp)
	.cfi_restore 1
	lw	s0,40(sp)
	.cfi_restore 8
	mv	a0,s3
	lw	s1,36(sp)
	.cfi_restore 9
.LVL284:
	lw	s2,32(sp)
	.cfi_restore 18
.LVL285:
	lw	s3,28(sp)
	.cfi_restore 19
.LVL286:
	lw	s4,24(sp)
	.cfi_restore 20
.LVL287:
	lw	s5,20(sp)
	.cfi_restore 21
.LVL288:
	lw	s6,16(sp)
	.cfi_restore 22
.LVL289:
	lw	s7,12(sp)
	.cfi_restore 23
.LVL290:
	lw	s8,8(sp)
	.cfi_restore 24
.LVL291:
	addi	sp,sp,48
	.cfi_def_cfa_offset 0
	jr	ra
	.cfi_endproc
.LFE105:
	.size	net_buf_append_bytes, .-net_buf_append_bytes
	.globl	net_buf_fixed_cb
	.section	.rodata.net_buf_fixed_cb,"a"
	.align	2
	.type	net_buf_fixed_cb, @object
	.size	net_buf_fixed_cb, 12
net_buf_fixed_cb:
	.word	fixed_data_alloc
	.zero	4
	.word	fixed_data_unref
	.text
.Letext0:
	.file 5 "/home/melody/work/Doiting_BL/bl_iot_sdk/toolchain/riscv/Linux/lib/gcc/riscv64-unknown-elf/8.3.0/include/stdint-gcc.h"
	.file 6 "/home/melody/work/Doiting_BL/bl_iot_sdk/toolchain/riscv/Linux/lib/gcc/riscv64-unknown-elf/8.3.0/include/stddef.h"
	.file 7 "/home/melody/work/Doiting_BL/bl_iot_sdk/components/network/ble/blestack/src/common/include/zephyr/types.h"
	.file 8 "/home/melody/work/Doiting_BL/bl_iot_sdk/components/network/ble/blestack/src/common/include/misc/dlist.h"
	.file 9 "/home/melody/work/Doiting_BL/bl_iot_sdk/toolchain/riscv/Linux/riscv64-unknown-elf/include/sys/_types.h"
	.file 10 "/home/melody/work/Doiting_BL/bl_iot_sdk/toolchain/riscv/Linux/riscv64-unknown-elf/include/sys/reent.h"
	.file 11 "/home/melody/work/Doiting_BL/bl_iot_sdk/toolchain/riscv/Linux/riscv64-unknown-elf/include/sys/lock.h"
	.file 12 "/home/melody/work/Doiting_BL/bl_iot_sdk/components/network/ble/blestack/src/port/include/bl_port.h"
	.file 13 "/home/melody/work/Doiting_BL/bl_iot_sdk/components/network/ble/blestack/src/port/include/zephyr.h"
	.file 14 "/home/melody/work/Doiting_BL/bl_iot_sdk/components/bl602/freertos_riscv_ram/portable/GCC/RISC-V/portmacro.h"
	.file 15 "/home/melody/work/Doiting_BL/bl_iot_sdk/toolchain/riscv/Linux/riscv64-unknown-elf/include/string.h"